ARM GAS  C:\Users\Soren\AppData\Local\Temp\ccEUhYBU.s 			page 1


   1              		.syntax unified
   2              		.cpu cortex-m3
   3              		.fpu softvfp
   4              		.eabi_attribute 20, 1
   5              		.eabi_attribute 21, 1
   6              		.eabi_attribute 23, 3
   7              		.eabi_attribute 24, 1
   8              		.eabi_attribute 25, 1
   9              		.eabi_attribute 26, 1
  10              		.eabi_attribute 30, 1
  11              		.eabi_attribute 34, 1
  12              		.eabi_attribute 18, 4
  13              		.thumb
  14              		.file	"cyfitter_cfg.c"
  15              		.text
  16              	.Ltext0:
  17              		.cfi_sections	.debug_frame
  18              		.section	.text.CyClockStartupError,"ax",%progbits
  19              		.align	2
  20              		.thumb
  21              		.thumb_func
  22              		.type	CyClockStartupError, %function
  23              	CyClockStartupError:
  24              	.LFB3:
  25              		.file 1 "Generated_Source\\PSoC5\\cyfitter_cfg.c"
   1:Generated_Source\PSoC5/cyfitter_cfg.c **** /*******************************************************************************
   2:Generated_Source\PSoC5/cyfitter_cfg.c **** * File Name: cyfitter_cfg.c
   3:Generated_Source\PSoC5/cyfitter_cfg.c **** * 
   4:Generated_Source\PSoC5/cyfitter_cfg.c **** * PSoC Creator  4.0
   5:Generated_Source\PSoC5/cyfitter_cfg.c **** *
   6:Generated_Source\PSoC5/cyfitter_cfg.c **** * Description:
   7:Generated_Source\PSoC5/cyfitter_cfg.c **** * This file contains device initialization code.
   8:Generated_Source\PSoC5/cyfitter_cfg.c **** * Except for the user defined sections in CyClockStartupError(), this file should not be modified.
   9:Generated_Source\PSoC5/cyfitter_cfg.c **** * This file is automatically generated by PSoC Creator.
  10:Generated_Source\PSoC5/cyfitter_cfg.c **** *
  11:Generated_Source\PSoC5/cyfitter_cfg.c **** ********************************************************************************
  12:Generated_Source\PSoC5/cyfitter_cfg.c **** * Copyright (c) 2007-2016 Cypress Semiconductor.  All rights reserved.
  13:Generated_Source\PSoC5/cyfitter_cfg.c **** * You may use this file only in accordance with the license, terms, conditions, 
  14:Generated_Source\PSoC5/cyfitter_cfg.c **** * disclaimers, and limitations in the end user license agreement accompanying 
  15:Generated_Source\PSoC5/cyfitter_cfg.c **** * the software package with which this file was provided.
  16:Generated_Source\PSoC5/cyfitter_cfg.c **** ********************************************************************************/
  17:Generated_Source\PSoC5/cyfitter_cfg.c **** 
  18:Generated_Source\PSoC5/cyfitter_cfg.c **** #include <string.h>
  19:Generated_Source\PSoC5/cyfitter_cfg.c **** #include "cytypes.h"
  20:Generated_Source\PSoC5/cyfitter_cfg.c **** #include "cydevice_trm.h"
  21:Generated_Source\PSoC5/cyfitter_cfg.c **** #include "cyfitter.h"
  22:Generated_Source\PSoC5/cyfitter_cfg.c **** #include "CyLib.h"
  23:Generated_Source\PSoC5/cyfitter_cfg.c **** #include "cyfitter_cfg.h"
  24:Generated_Source\PSoC5/cyfitter_cfg.c **** #include "cyapicallbacks.h"
  25:Generated_Source\PSoC5/cyfitter_cfg.c **** 
  26:Generated_Source\PSoC5/cyfitter_cfg.c **** #define CY_NEED_CYCLOCKSTARTUPERROR 1
  27:Generated_Source\PSoC5/cyfitter_cfg.c **** 
  28:Generated_Source\PSoC5/cyfitter_cfg.c **** 
  29:Generated_Source\PSoC5/cyfitter_cfg.c **** #if defined(__GNUC__) || defined(__ARMCC_VERSION)
  30:Generated_Source\PSoC5/cyfitter_cfg.c ****     #define CYPACKED 
  31:Generated_Source\PSoC5/cyfitter_cfg.c ****     #define CYPACKED_ATTR __attribute__ ((packed))
  32:Generated_Source\PSoC5/cyfitter_cfg.c ****     #define CYALIGNED __attribute__ ((aligned))
ARM GAS  C:\Users\Soren\AppData\Local\Temp\ccEUhYBU.s 			page 2


  33:Generated_Source\PSoC5/cyfitter_cfg.c ****     #define CY_CFG_UNUSED __attribute__ ((unused))
  34:Generated_Source\PSoC5/cyfitter_cfg.c ****     #ifndef CY_CFG_SECTION
  35:Generated_Source\PSoC5/cyfitter_cfg.c ****         #define CY_CFG_SECTION __attribute__ ((section(".psocinit")))
  36:Generated_Source\PSoC5/cyfitter_cfg.c ****     #endif
  37:Generated_Source\PSoC5/cyfitter_cfg.c ****     
  38:Generated_Source\PSoC5/cyfitter_cfg.c ****     #if defined(__ARMCC_VERSION)
  39:Generated_Source\PSoC5/cyfitter_cfg.c ****         #define CY_CFG_MEMORY_BARRIER() __memory_changed()
  40:Generated_Source\PSoC5/cyfitter_cfg.c ****     #else
  41:Generated_Source\PSoC5/cyfitter_cfg.c ****         #define CY_CFG_MEMORY_BARRIER() __sync_synchronize()
  42:Generated_Source\PSoC5/cyfitter_cfg.c ****     #endif
  43:Generated_Source\PSoC5/cyfitter_cfg.c ****     
  44:Generated_Source\PSoC5/cyfitter_cfg.c **** #elif defined(__ICCARM__)
  45:Generated_Source\PSoC5/cyfitter_cfg.c ****     #include <intrinsics.h>
  46:Generated_Source\PSoC5/cyfitter_cfg.c **** 
  47:Generated_Source\PSoC5/cyfitter_cfg.c ****     #define CYPACKED __packed
  48:Generated_Source\PSoC5/cyfitter_cfg.c ****     #define CYPACKED_ATTR 
  49:Generated_Source\PSoC5/cyfitter_cfg.c ****     #define CYALIGNED _Pragma("data_alignment=4")
  50:Generated_Source\PSoC5/cyfitter_cfg.c ****     #define CY_CFG_UNUSED _Pragma("diag_suppress=Pe177")
  51:Generated_Source\PSoC5/cyfitter_cfg.c ****     #define CY_CFG_SECTION _Pragma("location=\".psocinit\"")
  52:Generated_Source\PSoC5/cyfitter_cfg.c ****     
  53:Generated_Source\PSoC5/cyfitter_cfg.c ****     #define CY_CFG_MEMORY_BARRIER() __DMB()
  54:Generated_Source\PSoC5/cyfitter_cfg.c ****     
  55:Generated_Source\PSoC5/cyfitter_cfg.c **** #else
  56:Generated_Source\PSoC5/cyfitter_cfg.c ****     #error Unsupported toolchain
  57:Generated_Source\PSoC5/cyfitter_cfg.c **** #endif
  58:Generated_Source\PSoC5/cyfitter_cfg.c **** 
  59:Generated_Source\PSoC5/cyfitter_cfg.c **** 
  60:Generated_Source\PSoC5/cyfitter_cfg.c **** CY_CFG_UNUSED
  61:Generated_Source\PSoC5/cyfitter_cfg.c **** static void CYMEMZERO(void *s, size_t n);
  62:Generated_Source\PSoC5/cyfitter_cfg.c **** CY_CFG_UNUSED
  63:Generated_Source\PSoC5/cyfitter_cfg.c **** static void CYMEMZERO(void *s, size_t n)
  64:Generated_Source\PSoC5/cyfitter_cfg.c **** {
  65:Generated_Source\PSoC5/cyfitter_cfg.c **** 	(void)memset(s, 0, n);
  66:Generated_Source\PSoC5/cyfitter_cfg.c **** }
  67:Generated_Source\PSoC5/cyfitter_cfg.c **** CY_CFG_UNUSED
  68:Generated_Source\PSoC5/cyfitter_cfg.c **** static void CYCONFIGCPY(void *dest, const void *src, size_t n);
  69:Generated_Source\PSoC5/cyfitter_cfg.c **** CY_CFG_UNUSED
  70:Generated_Source\PSoC5/cyfitter_cfg.c **** static void CYCONFIGCPY(void *dest, const void *src, size_t n)
  71:Generated_Source\PSoC5/cyfitter_cfg.c **** {
  72:Generated_Source\PSoC5/cyfitter_cfg.c **** 	(void)memcpy(dest, src, n);
  73:Generated_Source\PSoC5/cyfitter_cfg.c **** }
  74:Generated_Source\PSoC5/cyfitter_cfg.c **** CY_CFG_UNUSED
  75:Generated_Source\PSoC5/cyfitter_cfg.c **** static void CYCONFIGCPYCODE(void *dest, const void *src, size_t n);
  76:Generated_Source\PSoC5/cyfitter_cfg.c **** CY_CFG_UNUSED
  77:Generated_Source\PSoC5/cyfitter_cfg.c **** static void CYCONFIGCPYCODE(void *dest, const void *src, size_t n)
  78:Generated_Source\PSoC5/cyfitter_cfg.c **** {
  79:Generated_Source\PSoC5/cyfitter_cfg.c **** 	(void)memcpy(dest, src, n);
  80:Generated_Source\PSoC5/cyfitter_cfg.c **** }
  81:Generated_Source\PSoC5/cyfitter_cfg.c **** 
  82:Generated_Source\PSoC5/cyfitter_cfg.c **** 
  83:Generated_Source\PSoC5/cyfitter_cfg.c **** 
  84:Generated_Source\PSoC5/cyfitter_cfg.c **** 
  85:Generated_Source\PSoC5/cyfitter_cfg.c **** /* Clock startup error codes                                                   */
  86:Generated_Source\PSoC5/cyfitter_cfg.c **** #define CYCLOCKSTART_NO_ERROR    0u
  87:Generated_Source\PSoC5/cyfitter_cfg.c **** #define CYCLOCKSTART_XTAL_ERROR  1u
  88:Generated_Source\PSoC5/cyfitter_cfg.c **** #define CYCLOCKSTART_32KHZ_ERROR 2u
  89:Generated_Source\PSoC5/cyfitter_cfg.c **** #define CYCLOCKSTART_PLL_ERROR   3u
ARM GAS  C:\Users\Soren\AppData\Local\Temp\ccEUhYBU.s 			page 3


  90:Generated_Source\PSoC5/cyfitter_cfg.c **** 
  91:Generated_Source\PSoC5/cyfitter_cfg.c **** 
  92:Generated_Source\PSoC5/cyfitter_cfg.c **** #ifdef CY_NEED_CYCLOCKSTARTUPERROR
  93:Generated_Source\PSoC5/cyfitter_cfg.c **** /*******************************************************************************
  94:Generated_Source\PSoC5/cyfitter_cfg.c **** * Function Name: CyClockStartupError
  95:Generated_Source\PSoC5/cyfitter_cfg.c **** ********************************************************************************
  96:Generated_Source\PSoC5/cyfitter_cfg.c **** * Summary:
  97:Generated_Source\PSoC5/cyfitter_cfg.c **** *  If an error is encountered during clock configuration (crystal startup error,
  98:Generated_Source\PSoC5/cyfitter_cfg.c **** *  PLL lock error, etc.), the system will end up here.  Unless reimplemented by
  99:Generated_Source\PSoC5/cyfitter_cfg.c **** *  the customer, this function will stop in an infinite loop.
 100:Generated_Source\PSoC5/cyfitter_cfg.c **** *
 101:Generated_Source\PSoC5/cyfitter_cfg.c **** * Parameters:
 102:Generated_Source\PSoC5/cyfitter_cfg.c **** *   void
 103:Generated_Source\PSoC5/cyfitter_cfg.c **** *
 104:Generated_Source\PSoC5/cyfitter_cfg.c **** * Return:
 105:Generated_Source\PSoC5/cyfitter_cfg.c **** *   void
 106:Generated_Source\PSoC5/cyfitter_cfg.c **** *
 107:Generated_Source\PSoC5/cyfitter_cfg.c **** *******************************************************************************/
 108:Generated_Source\PSoC5/cyfitter_cfg.c **** CY_CFG_UNUSED
 109:Generated_Source\PSoC5/cyfitter_cfg.c **** static void CyClockStartupError(uint8 errorCode);
 110:Generated_Source\PSoC5/cyfitter_cfg.c **** CY_CFG_UNUSED
 111:Generated_Source\PSoC5/cyfitter_cfg.c **** static void CyClockStartupError(uint8 errorCode)
 112:Generated_Source\PSoC5/cyfitter_cfg.c **** {
  26              		.loc 1 112 0
  27              		.cfi_startproc
  28              		@ Volatile: function does not return.
  29              		@ args = 0, pretend = 0, frame = 0
  30              		@ frame_needed = 0, uses_anonymous_args = 0
  31              		@ link register save eliminated.
  32              	.LVL0:
  33              	.L2:
 113:Generated_Source\PSoC5/cyfitter_cfg.c ****     /* To remove the compiler warning if errorCode not used.                */
 114:Generated_Source\PSoC5/cyfitter_cfg.c ****     errorCode = errorCode;
 115:Generated_Source\PSoC5/cyfitter_cfg.c **** 
 116:Generated_Source\PSoC5/cyfitter_cfg.c ****     /* If we have a clock startup error (bad MHz crystal, PLL lock, etc.),  */
 117:Generated_Source\PSoC5/cyfitter_cfg.c ****     /* we will end up here to allow the customer to implement something to  */
 118:Generated_Source\PSoC5/cyfitter_cfg.c ****     /* deal with the clock condition.                                       */
 119:Generated_Source\PSoC5/cyfitter_cfg.c **** 
 120:Generated_Source\PSoC5/cyfitter_cfg.c **** #ifdef CY_CFG_CLOCK_STARTUP_ERROR_CALLBACK
 121:Generated_Source\PSoC5/cyfitter_cfg.c **** 	CY_CFG_Clock_Startup_ErrorCallback();
 122:Generated_Source\PSoC5/cyfitter_cfg.c **** #else
 123:Generated_Source\PSoC5/cyfitter_cfg.c **** 	/*  If not using CY_CFG_CLOCK_STARTUP_ERROR_CALLBACK, place your clock startup code here. */
 124:Generated_Source\PSoC5/cyfitter_cfg.c ****     /* `#START CyClockStartupError` */
 125:Generated_Source\PSoC5/cyfitter_cfg.c **** 
 126:Generated_Source\PSoC5/cyfitter_cfg.c **** 
 127:Generated_Source\PSoC5/cyfitter_cfg.c **** 
 128:Generated_Source\PSoC5/cyfitter_cfg.c ****     /* `#END` */
 129:Generated_Source\PSoC5/cyfitter_cfg.c **** 
 130:Generated_Source\PSoC5/cyfitter_cfg.c ****     /* If nothing else, stop here since the clocks have not started         */
 131:Generated_Source\PSoC5/cyfitter_cfg.c ****     /* correctly.                                                           */
 132:Generated_Source\PSoC5/cyfitter_cfg.c ****     while(1) {}
  34              		.loc 1 132 0 discriminator 1
  35 0000 FEE7     		b	.L2
  36              		.cfi_endproc
  37              	.LFE3:
  38              		.size	CyClockStartupError, .-CyClockStartupError
  39 0002 00BF     		.section	.text.cfg_write_bytes32,"ax",%progbits
ARM GAS  C:\Users\Soren\AppData\Local\Temp\ccEUhYBU.s 			page 4


  40              		.align	2
  41              		.thumb
  42              		.thumb_func
  43              		.type	cfg_write_bytes32, %function
  44              	cfg_write_bytes32:
  45              	.LFB4:
 133:Generated_Source\PSoC5/cyfitter_cfg.c **** #endif /* CY_CFG_CLOCK_STARTUP_ERROR_CALLBACK */ 
 134:Generated_Source\PSoC5/cyfitter_cfg.c **** }
 135:Generated_Source\PSoC5/cyfitter_cfg.c **** #endif
 136:Generated_Source\PSoC5/cyfitter_cfg.c **** 
 137:Generated_Source\PSoC5/cyfitter_cfg.c **** #define CY_CFG_BASE_ADDR_COUNT 13u
 138:Generated_Source\PSoC5/cyfitter_cfg.c **** CYPACKED typedef struct
 139:Generated_Source\PSoC5/cyfitter_cfg.c **** {
 140:Generated_Source\PSoC5/cyfitter_cfg.c **** 	uint8 offset;
 141:Generated_Source\PSoC5/cyfitter_cfg.c **** 	uint8 value;
 142:Generated_Source\PSoC5/cyfitter_cfg.c **** } CYPACKED_ATTR cy_cfg_addrvalue_t;
 143:Generated_Source\PSoC5/cyfitter_cfg.c **** 
 144:Generated_Source\PSoC5/cyfitter_cfg.c **** #define cy_cfg_addr_table ((const uint32 CYFAR *)0x48000000u)
 145:Generated_Source\PSoC5/cyfitter_cfg.c **** #define cy_cfg_data_table ((const cy_cfg_addrvalue_t CYFAR *)0x48000034u)
 146:Generated_Source\PSoC5/cyfitter_cfg.c **** 
 147:Generated_Source\PSoC5/cyfitter_cfg.c **** /* IOPINS0_0 Address: CYREG_PRT0_DM0 Size (bytes): 8 */
 148:Generated_Source\PSoC5/cyfitter_cfg.c **** #define BS_IOPINS0_0_VAL ((const uint8 CYFAR *)0x48000064u)
 149:Generated_Source\PSoC5/cyfitter_cfg.c **** 
 150:Generated_Source\PSoC5/cyfitter_cfg.c **** /* IOPINS0_1 Address: CYREG_PRT1_DM0 Size (bytes): 8 */
 151:Generated_Source\PSoC5/cyfitter_cfg.c **** #define BS_IOPINS0_1_VAL ((const uint8 CYFAR *)0x4800006Cu)
 152:Generated_Source\PSoC5/cyfitter_cfg.c **** 
 153:Generated_Source\PSoC5/cyfitter_cfg.c **** /* CYDEV_CLKDIST_ACFG0_CFG0 Address: CYREG_CLKDIST_ACFG0_CFG0 Size (bytes): 4 */
 154:Generated_Source\PSoC5/cyfitter_cfg.c **** #define BS_CYDEV_CLKDIST_ACFG0_CFG0_VAL ((const uint8 CYFAR *)0x48000074u)
 155:Generated_Source\PSoC5/cyfitter_cfg.c **** 
 156:Generated_Source\PSoC5/cyfitter_cfg.c **** 
 157:Generated_Source\PSoC5/cyfitter_cfg.c **** /*******************************************************************************
 158:Generated_Source\PSoC5/cyfitter_cfg.c **** * Function Name: cfg_write_bytes32
 159:Generated_Source\PSoC5/cyfitter_cfg.c **** ********************************************************************************
 160:Generated_Source\PSoC5/cyfitter_cfg.c **** * Summary:
 161:Generated_Source\PSoC5/cyfitter_cfg.c **** *  This function is used for setting up the chip configuration areas that
 162:Generated_Source\PSoC5/cyfitter_cfg.c **** *  contain relatively sparse data.
 163:Generated_Source\PSoC5/cyfitter_cfg.c **** *
 164:Generated_Source\PSoC5/cyfitter_cfg.c **** * Parameters:
 165:Generated_Source\PSoC5/cyfitter_cfg.c **** *   void
 166:Generated_Source\PSoC5/cyfitter_cfg.c **** *
 167:Generated_Source\PSoC5/cyfitter_cfg.c **** * Return:
 168:Generated_Source\PSoC5/cyfitter_cfg.c **** *   void
 169:Generated_Source\PSoC5/cyfitter_cfg.c **** *
 170:Generated_Source\PSoC5/cyfitter_cfg.c **** *******************************************************************************/
 171:Generated_Source\PSoC5/cyfitter_cfg.c **** static void cfg_write_bytes32(const uint32 addr_table[], const cy_cfg_addrvalue_t data_table[]);
 172:Generated_Source\PSoC5/cyfitter_cfg.c **** static void cfg_write_bytes32(const uint32 addr_table[], const cy_cfg_addrvalue_t data_table[])
 173:Generated_Source\PSoC5/cyfitter_cfg.c **** {
  46              		.loc 1 173 0
  47              		.cfi_startproc
  48              		@ args = 0, pretend = 0, frame = 0
  49              		@ frame_needed = 0, uses_anonymous_args = 0
  50              		@ link register save eliminated.
  51              	.LVL1:
  52 0000 F0B4     		push	{r4, r5, r6, r7}
  53              		.cfi_def_cfa_offset 16
  54              		.cfi_offset 4, -16
  55              		.cfi_offset 5, -12
ARM GAS  C:\Users\Soren\AppData\Local\Temp\ccEUhYBU.s 			page 5


  56              		.cfi_offset 6, -8
  57              		.cfi_offset 7, -4
  58              	.LVL2:
 174:Generated_Source\PSoC5/cyfitter_cfg.c **** 	/* For 32-bit little-endian architectures */
 175:Generated_Source\PSoC5/cyfitter_cfg.c **** 	uint32 i, j = 0u;
  59              		.loc 1 175 0
  60 0002 0022     		movs	r2, #0
 176:Generated_Source\PSoC5/cyfitter_cfg.c **** 	for (i = 0u; i < CY_CFG_BASE_ADDR_COUNT; i++)
  61              		.loc 1 176 0
  62 0004 1746     		mov	r7, r2
  63 0006 11E0     		b	.L4
  64              	.LVL3:
  65              	.L7:
  66              	.LBB2:
 177:Generated_Source\PSoC5/cyfitter_cfg.c **** 	{
 178:Generated_Source\PSoC5/cyfitter_cfg.c **** 		uint32 baseAddr = addr_table[i];
  67              		.loc 1 178 0
  68 0008 50F82760 		ldr	r6, [r0, r7, lsl #2]
  69              	.LVL4:
 179:Generated_Source\PSoC5/cyfitter_cfg.c **** 		uint8 count = (uint8)baseAddr;
  70              		.loc 1 179 0
  71 000c F3B2     		uxtb	r3, r6
  72              	.LVL5:
 180:Generated_Source\PSoC5/cyfitter_cfg.c **** 		baseAddr &= 0xFFFFFF00u;
  73              		.loc 1 180 0
  74 000e 26F0FF06 		bic	r6, r6, #255
  75              	.LVL6:
 181:Generated_Source\PSoC5/cyfitter_cfg.c **** 		while (count != 0u)
  76              		.loc 1 181 0
  77 0012 08E0     		b	.L5
  78              	.L6:
 182:Generated_Source\PSoC5/cyfitter_cfg.c **** 		{
 183:Generated_Source\PSoC5/cyfitter_cfg.c **** 			CY_SET_XTND_REG8((void CYFAR *)(baseAddr + data_table[j].offset), data_table[j].value);
  79              		.loc 1 183 0
  80 0014 01EB4205 		add	r5, r1, r2, lsl #1
  81 0018 11F81240 		ldrb	r4, [r1, r2, lsl #1]	@ zero_extendqisi2
  82 001c 6D78     		ldrb	r5, [r5, #1]	@ zero_extendqisi2
  83 001e A555     		strb	r5, [r4, r6]
 184:Generated_Source\PSoC5/cyfitter_cfg.c **** 			j++;
  84              		.loc 1 184 0
  85 0020 0132     		adds	r2, r2, #1
  86              	.LVL7:
 185:Generated_Source\PSoC5/cyfitter_cfg.c **** 			count--;
  87              		.loc 1 185 0
  88 0022 013B     		subs	r3, r3, #1
  89              	.LVL8:
  90 0024 DBB2     		uxtb	r3, r3
  91              	.LVL9:
  92              	.L5:
 181:Generated_Source\PSoC5/cyfitter_cfg.c **** 		{
  93              		.loc 1 181 0
  94 0026 002B     		cmp	r3, #0
  95 0028 F4D1     		bne	.L6
  96              	.LBE2:
 176:Generated_Source\PSoC5/cyfitter_cfg.c **** 	{
  97              		.loc 1 176 0 discriminator 2
  98 002a 0137     		adds	r7, r7, #1
ARM GAS  C:\Users\Soren\AppData\Local\Temp\ccEUhYBU.s 			page 6


  99              	.LVL10:
 100              	.L4:
 176:Generated_Source\PSoC5/cyfitter_cfg.c **** 	{
 101              		.loc 1 176 0 is_stmt 0 discriminator 1
 102 002c 0C2F     		cmp	r7, #12
 103 002e EBD9     		bls	.L7
 186:Generated_Source\PSoC5/cyfitter_cfg.c **** 		}
 187:Generated_Source\PSoC5/cyfitter_cfg.c **** 	}
 188:Generated_Source\PSoC5/cyfitter_cfg.c **** }
 104              		.loc 1 188 0 is_stmt 1
 105 0030 F0BC     		pop	{r4, r5, r6, r7}
 106              		.cfi_restore 7
 107              		.cfi_restore 6
 108              		.cfi_restore 5
 109              		.cfi_restore 4
 110              		.cfi_def_cfa_offset 0
 111              	.LVL11:
 112 0032 7047     		bx	lr
 113              		.cfi_endproc
 114              	.LFE4:
 115              		.size	cfg_write_bytes32, .-cfg_write_bytes32
 116              		.section	.text.AnalogSetDefault,"ax",%progbits
 117              		.align	2
 118              		.thumb
 119              		.thumb_func
 120              		.type	AnalogSetDefault, %function
 121              	AnalogSetDefault:
 122              	.LFB6:
 189:Generated_Source\PSoC5/cyfitter_cfg.c **** 
 190:Generated_Source\PSoC5/cyfitter_cfg.c **** /*******************************************************************************
 191:Generated_Source\PSoC5/cyfitter_cfg.c **** * Function Name: ClockSetup
 192:Generated_Source\PSoC5/cyfitter_cfg.c **** ********************************************************************************
 193:Generated_Source\PSoC5/cyfitter_cfg.c **** *
 194:Generated_Source\PSoC5/cyfitter_cfg.c **** * Summary:
 195:Generated_Source\PSoC5/cyfitter_cfg.c **** *  Performs the initialization of all of the clocks in the device based on the
 196:Generated_Source\PSoC5/cyfitter_cfg.c **** *  settings in the Clock tab of the DWR.  This includes enabling the requested
 197:Generated_Source\PSoC5/cyfitter_cfg.c **** *  clocks and setting the necessary dividers to produce the desired frequency. 
 198:Generated_Source\PSoC5/cyfitter_cfg.c **** *
 199:Generated_Source\PSoC5/cyfitter_cfg.c **** * Parameters:
 200:Generated_Source\PSoC5/cyfitter_cfg.c **** *  void
 201:Generated_Source\PSoC5/cyfitter_cfg.c **** *
 202:Generated_Source\PSoC5/cyfitter_cfg.c **** * Return:
 203:Generated_Source\PSoC5/cyfitter_cfg.c **** *  void
 204:Generated_Source\PSoC5/cyfitter_cfg.c **** *
 205:Generated_Source\PSoC5/cyfitter_cfg.c **** *******************************************************************************/
 206:Generated_Source\PSoC5/cyfitter_cfg.c **** static void ClockSetup(void);
 207:Generated_Source\PSoC5/cyfitter_cfg.c **** static void ClockSetup(void)
 208:Generated_Source\PSoC5/cyfitter_cfg.c **** {
 209:Generated_Source\PSoC5/cyfitter_cfg.c **** 	uint32 timeout;
 210:Generated_Source\PSoC5/cyfitter_cfg.c **** 	uint8 pllLock;
 211:Generated_Source\PSoC5/cyfitter_cfg.c **** 
 212:Generated_Source\PSoC5/cyfitter_cfg.c **** 
 213:Generated_Source\PSoC5/cyfitter_cfg.c **** 	/* Configure Digital Clocks based on settings from Clock DWR */
 214:Generated_Source\PSoC5/cyfitter_cfg.c **** 	CY_SET_XTND_REG16((void CYFAR *)(CYREG_CLKDIST_DCFG0_CFG0), 0x0000u);
 215:Generated_Source\PSoC5/cyfitter_cfg.c **** 	CY_SET_XTND_REG8((void CYFAR *)(CYREG_CLKDIST_DCFG0_CFG0 + 0x2u), 0x50u);
 216:Generated_Source\PSoC5/cyfitter_cfg.c **** 
 217:Generated_Source\PSoC5/cyfitter_cfg.c **** 	/* Configure Analog Clocks based on settings from Clock DWR */
ARM GAS  C:\Users\Soren\AppData\Local\Temp\ccEUhYBU.s 			page 7


 218:Generated_Source\PSoC5/cyfitter_cfg.c **** 	CYCONFIGCPY((void CYFAR *)(CYREG_CLKDIST_ACFG0_CFG0), (const void CYFAR *)(BS_CYDEV_CLKDIST_ACFG0_
 219:Generated_Source\PSoC5/cyfitter_cfg.c **** 
 220:Generated_Source\PSoC5/cyfitter_cfg.c **** 	/* Configure ILO based on settings from Clock DWR */
 221:Generated_Source\PSoC5/cyfitter_cfg.c **** 	CY_SET_XTND_REG8((void CYFAR *)(CYREG_SLOWCLK_ILO_CR0), 0x02u);
 222:Generated_Source\PSoC5/cyfitter_cfg.c **** 	CY_SET_XTND_REG8((void CYFAR *)(CYREG_CLKDIST_CR), 0x08u);
 223:Generated_Source\PSoC5/cyfitter_cfg.c **** 
 224:Generated_Source\PSoC5/cyfitter_cfg.c **** 	/* Configure IMO based on settings from Clock DWR */
 225:Generated_Source\PSoC5/cyfitter_cfg.c **** 	CY_SET_XTND_REG8((void CYFAR *)(CYREG_FASTCLK_IMO_CR), 0x03u);
 226:Generated_Source\PSoC5/cyfitter_cfg.c **** 	CY_SET_XTND_REG8((void CYFAR *)(CYREG_IMO_TR1), (CY_GET_XTND_REG8((void CYFAR *)CYREG_FLSHID_CUST_
 227:Generated_Source\PSoC5/cyfitter_cfg.c **** 
 228:Generated_Source\PSoC5/cyfitter_cfg.c **** 	/* Configure PLL based on settings from Clock DWR */
 229:Generated_Source\PSoC5/cyfitter_cfg.c **** 	CY_SET_XTND_REG16((void CYFAR *)(CYREG_FASTCLK_PLL_P), 0x0008u);
 230:Generated_Source\PSoC5/cyfitter_cfg.c **** 	CY_SET_XTND_REG16((void CYFAR *)(CYREG_FASTCLK_PLL_CFG0), 0x1251u);
 231:Generated_Source\PSoC5/cyfitter_cfg.c **** 	/* Wait up to 250us for the PLL to lock */
 232:Generated_Source\PSoC5/cyfitter_cfg.c **** 	pllLock = 0u;
 233:Generated_Source\PSoC5/cyfitter_cfg.c **** 	for (timeout = 250u / 10u; (timeout > 0u) && (pllLock != 0x03u); timeout--)
 234:Generated_Source\PSoC5/cyfitter_cfg.c **** 	{ 
 235:Generated_Source\PSoC5/cyfitter_cfg.c **** 		pllLock = 0x03u & ((uint8)((uint8)pllLock << 1) | ((CY_GET_XTND_REG8((void CYFAR *)CYREG_FASTCLK_
 236:Generated_Source\PSoC5/cyfitter_cfg.c **** 		CyDelayCycles(10u * 48u); /* Delay 10us based on 48MHz clock */
 237:Generated_Source\PSoC5/cyfitter_cfg.c **** 	}
 238:Generated_Source\PSoC5/cyfitter_cfg.c **** 	/* If we ran out of time the PLL didn't lock so go to the error function */
 239:Generated_Source\PSoC5/cyfitter_cfg.c **** 	if (timeout == 0u)
 240:Generated_Source\PSoC5/cyfitter_cfg.c **** 	{
 241:Generated_Source\PSoC5/cyfitter_cfg.c **** 		CyClockStartupError(CYCLOCKSTART_PLL_ERROR);
 242:Generated_Source\PSoC5/cyfitter_cfg.c **** 	}
 243:Generated_Source\PSoC5/cyfitter_cfg.c **** 
 244:Generated_Source\PSoC5/cyfitter_cfg.c **** 	/* Configure Bus/Master Clock based on settings from Clock DWR */
 245:Generated_Source\PSoC5/cyfitter_cfg.c **** 	CY_SET_XTND_REG16((void CYFAR *)(CYREG_CLKDIST_MSTR0), 0x0100u);
 246:Generated_Source\PSoC5/cyfitter_cfg.c **** 	CY_SET_XTND_REG8((void CYFAR *)(CYREG_CLKDIST_MSTR0), 0x07u);
 247:Generated_Source\PSoC5/cyfitter_cfg.c **** 	CY_SET_XTND_REG8((void CYFAR *)(CYREG_CLKDIST_BCFG0), 0x00u);
 248:Generated_Source\PSoC5/cyfitter_cfg.c **** 	CY_SET_XTND_REG8((void CYFAR *)(CYREG_CLKDIST_BCFG2), 0x48u);
 249:Generated_Source\PSoC5/cyfitter_cfg.c **** 	CY_SET_XTND_REG8((void CYFAR *)(CYREG_CLKDIST_MSTR0), 0x00u);
 250:Generated_Source\PSoC5/cyfitter_cfg.c **** 	CY_SET_XTND_REG8((void CYFAR *)(CYREG_CLKDIST_LD), 0x02u);
 251:Generated_Source\PSoC5/cyfitter_cfg.c **** 	CY_SET_XTND_REG8((void CYFAR *)(CYREG_CLKDIST_DLY1), 0x04u);
 252:Generated_Source\PSoC5/cyfitter_cfg.c **** 
 253:Generated_Source\PSoC5/cyfitter_cfg.c **** 	CY_SET_XTND_REG8((void CYFAR *)(CYREG_PM_ACT_CFG2), ((CY_GET_XTND_REG8((void CYFAR *)CYREG_PM_ACT_
 254:Generated_Source\PSoC5/cyfitter_cfg.c **** 	CY_SET_XTND_REG8((void CYFAR *)(CYREG_PM_ACT_CFG1), ((CY_GET_XTND_REG8((void CYFAR *)CYREG_PM_ACT_
 255:Generated_Source\PSoC5/cyfitter_cfg.c **** 	CY_SET_XTND_REG8((void CYFAR *)(CYREG_PM_ACT_CFG0), ((CY_GET_XTND_REG8((void CYFAR *)CYREG_PM_ACT_
 256:Generated_Source\PSoC5/cyfitter_cfg.c **** }
 257:Generated_Source\PSoC5/cyfitter_cfg.c **** 
 258:Generated_Source\PSoC5/cyfitter_cfg.c **** 
 259:Generated_Source\PSoC5/cyfitter_cfg.c **** /* Analog API Functions */
 260:Generated_Source\PSoC5/cyfitter_cfg.c **** 
 261:Generated_Source\PSoC5/cyfitter_cfg.c **** 
 262:Generated_Source\PSoC5/cyfitter_cfg.c **** /*******************************************************************************
 263:Generated_Source\PSoC5/cyfitter_cfg.c **** * Function Name: AnalogSetDefault
 264:Generated_Source\PSoC5/cyfitter_cfg.c **** ********************************************************************************
 265:Generated_Source\PSoC5/cyfitter_cfg.c **** *
 266:Generated_Source\PSoC5/cyfitter_cfg.c **** * Summary:
 267:Generated_Source\PSoC5/cyfitter_cfg.c **** *  Sets up the analog portions of the chip to default values based on chip
 268:Generated_Source\PSoC5/cyfitter_cfg.c **** *  configuration options from the project.
 269:Generated_Source\PSoC5/cyfitter_cfg.c **** *
 270:Generated_Source\PSoC5/cyfitter_cfg.c **** * Parameters:
 271:Generated_Source\PSoC5/cyfitter_cfg.c **** *  void
 272:Generated_Source\PSoC5/cyfitter_cfg.c **** *
 273:Generated_Source\PSoC5/cyfitter_cfg.c **** * Return:
 274:Generated_Source\PSoC5/cyfitter_cfg.c **** *  void
ARM GAS  C:\Users\Soren\AppData\Local\Temp\ccEUhYBU.s 			page 8


 275:Generated_Source\PSoC5/cyfitter_cfg.c **** *
 276:Generated_Source\PSoC5/cyfitter_cfg.c **** *******************************************************************************/
 277:Generated_Source\PSoC5/cyfitter_cfg.c **** static void AnalogSetDefault(void);
 278:Generated_Source\PSoC5/cyfitter_cfg.c **** static void AnalogSetDefault(void)
 279:Generated_Source\PSoC5/cyfitter_cfg.c **** {
 123              		.loc 1 279 0
 124              		.cfi_startproc
 125              		@ args = 0, pretend = 0, frame = 0
 126              		@ frame_needed = 0, uses_anonymous_args = 0
 127              		@ link register save eliminated.
 280:Generated_Source\PSoC5/cyfitter_cfg.c **** 	uint8 bg_xover_inl_trim = CY_GET_XTND_REG8((void CYFAR *)(CYREG_FLSHID_MFG_CFG_BG_XOVER_INL_TRIM +
 128              		.loc 1 280 0
 129 0000 0F4B     		ldr	r3, .L10
 130 0002 1B78     		ldrb	r3, [r3]	@ zero_extendqisi2
 131 0004 DBB2     		uxtb	r3, r3
 132              	.LVL12:
 281:Generated_Source\PSoC5/cyfitter_cfg.c **** 	CY_SET_XTND_REG8((void CYFAR *)(CYREG_BG_DFT0), (bg_xover_inl_trim & 0x07u));
 133              		.loc 1 281 0
 134 0006 03F00701 		and	r1, r3, #7
 135 000a 0E4A     		ldr	r2, .L10+4
 136 000c 1170     		strb	r1, [r2]
 282:Generated_Source\PSoC5/cyfitter_cfg.c **** 	CY_SET_XTND_REG8((void CYFAR *)(CYREG_BG_DFT1), ((bg_xover_inl_trim >> 4) & 0x0Fu));
 137              		.loc 1 282 0
 138 000e 1B09     		lsrs	r3, r3, #4
 139              	.LVL13:
 140 0010 0132     		adds	r2, r2, #1
 141 0012 1370     		strb	r3, [r2]
 283:Generated_Source\PSoC5/cyfitter_cfg.c **** 	CY_SET_XTND_REG8((void CYFAR *)CYREG_CMP2_CR, 0x02u);
 142              		.loc 1 283 0
 143 0014 0222     		movs	r2, #2
 144 0016 0C4B     		ldr	r3, .L10+8
 145 0018 1A70     		strb	r2, [r3]
 284:Generated_Source\PSoC5/cyfitter_cfg.c **** 	CY_SET_XTND_REG8((void CYFAR *)CYREG_PM_ACT_CFG7, 0x04u);
 146              		.loc 1 284 0
 147 001a 0422     		movs	r2, #4
 148 001c A3F5A453 		sub	r3, r3, #5248
 149 0020 1B3B     		subs	r3, r3, #27
 150 0022 1A70     		strb	r2, [r3]
 285:Generated_Source\PSoC5/cyfitter_cfg.c **** 	CY_SET_XTND_REG8((void CYFAR *)CYREG_CMP2_SW3, 0x20u);
 151              		.loc 1 285 0
 152 0024 2023     		movs	r3, #32
 153 0026 094A     		ldr	r2, .L10+12
 154 0028 1370     		strb	r3, [r2]
 286:Generated_Source\PSoC5/cyfitter_cfg.c **** 	CY_SET_XTND_REG8((void CYFAR *)CYREG_DSM0_SW0, 0x20u);
 155              		.loc 1 286 0
 156 002a 2D32     		adds	r2, r2, #45
 157 002c 1370     		strb	r3, [r2]
 287:Generated_Source\PSoC5/cyfitter_cfg.c **** 	CY_SET_XTND_REG8((void CYFAR *)CYREG_DSM0_SW4, 0x80u);
 158              		.loc 1 287 0
 159 002e 8022     		movs	r2, #128
 160 0030 074B     		ldr	r3, .L10+16
 161 0032 1A70     		strb	r2, [r3]
 288:Generated_Source\PSoC5/cyfitter_cfg.c **** 	CY_SET_XTND_REG8((void CYFAR *)CYREG_PUMP_CR0, 0x44u);
 162              		.loc 1 288 0
 163 0034 4422     		movs	r2, #68
 164 0036 A3F28E23 		subw	r3, r3, #654
 165 003a 1A70     		strb	r2, [r3]
ARM GAS  C:\Users\Soren\AppData\Local\Temp\ccEUhYBU.s 			page 9


 166 003c 7047     		bx	lr
 167              	.L11:
 168 003e 00BF     		.align	2
 169              	.L10:
 170 0040 CF010049 		.word	1224737231
 171 0044 6E580040 		.word	1073764462
 172 0048 42580040 		.word	1073764418
 173 004c D35A0040 		.word	1073765075
 174 0050 045B0040 		.word	1073765124
 175              		.cfi_endproc
 176              	.LFE6:
 177              		.size	AnalogSetDefault, .-AnalogSetDefault
 178              		.section	.text.CYMEMZERO,"ax",%progbits
 179              		.align	2
 180              		.thumb
 181              		.thumb_func
 182              		.type	CYMEMZERO, %function
 183              	CYMEMZERO:
 184              	.LFB0:
  64:Generated_Source\PSoC5/cyfitter_cfg.c **** 	(void)memset(s, 0, n);
 185              		.loc 1 64 0
 186              		.cfi_startproc
 187              		@ args = 0, pretend = 0, frame = 0
 188              		@ frame_needed = 0, uses_anonymous_args = 0
 189              	.LVL14:
 190 0000 08B5     		push	{r3, lr}
 191              		.cfi_def_cfa_offset 8
 192              		.cfi_offset 3, -8
 193              		.cfi_offset 14, -4
 194 0002 0A46     		mov	r2, r1
  65:Generated_Source\PSoC5/cyfitter_cfg.c **** }
 195              		.loc 1 65 0
 196 0004 0021     		movs	r1, #0
 197              	.LVL15:
 198 0006 FFF7FEFF 		bl	memset
 199              	.LVL16:
 200 000a 08BD     		pop	{r3, pc}
 201              		.cfi_endproc
 202              	.LFE0:
 203              		.size	CYMEMZERO, .-CYMEMZERO
 204              		.section	.text.CYCONFIGCPY,"ax",%progbits
 205              		.align	2
 206              		.thumb
 207              		.thumb_func
 208              		.type	CYCONFIGCPY, %function
 209              	CYCONFIGCPY:
 210              	.LFB1:
  71:Generated_Source\PSoC5/cyfitter_cfg.c **** 	(void)memcpy(dest, src, n);
 211              		.loc 1 71 0
 212              		.cfi_startproc
 213              		@ args = 0, pretend = 0, frame = 0
 214              		@ frame_needed = 0, uses_anonymous_args = 0
 215              	.LVL17:
 216 0000 08B5     		push	{r3, lr}
 217              		.cfi_def_cfa_offset 8
 218              		.cfi_offset 3, -8
 219              		.cfi_offset 14, -4
ARM GAS  C:\Users\Soren\AppData\Local\Temp\ccEUhYBU.s 			page 10


  72:Generated_Source\PSoC5/cyfitter_cfg.c **** }
 220              		.loc 1 72 0
 221 0002 FFF7FEFF 		bl	memcpy
 222              	.LVL18:
 223 0006 08BD     		pop	{r3, pc}
 224              		.cfi_endproc
 225              	.LFE1:
 226              		.size	CYCONFIGCPY, .-CYCONFIGCPY
 227              		.section	.text.ClockSetup,"ax",%progbits
 228              		.align	2
 229              		.thumb
 230              		.thumb_func
 231              		.type	ClockSetup, %function
 232              	ClockSetup:
 233              	.LFB5:
 208:Generated_Source\PSoC5/cyfitter_cfg.c **** 	uint32 timeout;
 234              		.loc 1 208 0
 235              		.cfi_startproc
 236              		@ args = 0, pretend = 0, frame = 0
 237              		@ frame_needed = 0, uses_anonymous_args = 0
 238 0000 38B5     		push	{r3, r4, r5, lr}
 239              		.cfi_def_cfa_offset 16
 240              		.cfi_offset 3, -16
 241              		.cfi_offset 4, -12
 242              		.cfi_offset 5, -8
 243              		.cfi_offset 14, -4
 214:Generated_Source\PSoC5/cyfitter_cfg.c **** 	CY_SET_XTND_REG8((void CYFAR *)(CYREG_CLKDIST_DCFG0_CFG0 + 0x2u), 0x50u);
 244              		.loc 1 214 0
 245 0002 0024     		movs	r4, #0
 246 0004 2C4B     		ldr	r3, .L22
 247 0006 1C80     		strh	r4, [r3]	@ movhi
 215:Generated_Source\PSoC5/cyfitter_cfg.c **** 
 248              		.loc 1 215 0
 249 0008 5022     		movs	r2, #80
 250 000a 0233     		adds	r3, r3, #2
 251 000c 1A70     		strb	r2, [r3]
 218:Generated_Source\PSoC5/cyfitter_cfg.c **** 
 252              		.loc 1 218 0
 253 000e 2B48     		ldr	r0, .L22+4
 254 0010 2B49     		ldr	r1, .L22+8
 255 0012 0422     		movs	r2, #4
 256 0014 FFF7FEFF 		bl	CYCONFIGCPY
 257              	.LVL19:
 221:Generated_Source\PSoC5/cyfitter_cfg.c **** 	CY_SET_XTND_REG8((void CYFAR *)(CYREG_CLKDIST_CR), 0x08u);
 258              		.loc 1 221 0
 259 0018 0222     		movs	r2, #2
 260 001a 2A4B     		ldr	r3, .L22+12
 261 001c 1A70     		strb	r2, [r3]
 222:Generated_Source\PSoC5/cyfitter_cfg.c **** 
 262              		.loc 1 222 0
 263 001e 0822     		movs	r2, #8
 264 0020 4FF04023 		mov	r3, #1073758208
 265 0024 1A70     		strb	r2, [r3]
 225:Generated_Source\PSoC5/cyfitter_cfg.c **** 	CY_SET_XTND_REG8((void CYFAR *)(CYREG_IMO_TR1), (CY_GET_XTND_REG8((void CYFAR *)CYREG_FLSHID_CUST_
 266              		.loc 1 225 0
 267 0026 0321     		movs	r1, #3
 268 0028 03F50073 		add	r3, r3, #512
ARM GAS  C:\Users\Soren\AppData\Local\Temp\ccEUhYBU.s 			page 11


 269 002c 1970     		strb	r1, [r3]
 226:Generated_Source\PSoC5/cyfitter_cfg.c **** 
 270              		.loc 1 226 0
 271 002e 264B     		ldr	r3, .L22+16
 272 0030 1B78     		ldrb	r3, [r3]	@ zero_extendqisi2
 273 0032 DBB2     		uxtb	r3, r3
 274 0034 2549     		ldr	r1, .L22+20
 275 0036 0B70     		strb	r3, [r1]
 229:Generated_Source\PSoC5/cyfitter_cfg.c **** 	CY_SET_XTND_REG16((void CYFAR *)(CYREG_FASTCLK_PLL_CFG0), 0x1251u);
 276              		.loc 1 229 0
 277 0038 254B     		ldr	r3, .L22+24
 278 003a 1A80     		strh	r2, [r3]	@ movhi
 230:Generated_Source\PSoC5/cyfitter_cfg.c **** 	/* Wait up to 250us for the PLL to lock */
 279              		.loc 1 230 0
 280 003c 41F25122 		movw	r2, #4689
 281 0040 023B     		subs	r3, r3, #2
 282 0042 1A80     		strh	r2, [r3]	@ movhi
 283              	.LVL20:
 233:Generated_Source\PSoC5/cyfitter_cfg.c **** 	{ 
 284              		.loc 1 233 0
 285 0044 1925     		movs	r5, #25
 286 0046 0CE0     		b	.L17
 287              	.LVL21:
 288              	.L19:
 235:Generated_Source\PSoC5/cyfitter_cfg.c **** 		CyDelayCycles(10u * 48u); /* Delay 10us based on 48MHz clock */
 289              		.loc 1 235 0 discriminator 4
 290 0048 224B     		ldr	r3, .L22+28
 291 004a 1B78     		ldrb	r3, [r3]	@ zero_extendqisi2
 292 004c 03F00103 		and	r3, r3, #1
 293 0050 43EA4404 		orr	r4, r3, r4, lsl #1
 294              	.LVL22:
 295 0054 04F00304 		and	r4, r4, #3
 296              	.LVL23:
 236:Generated_Source\PSoC5/cyfitter_cfg.c **** 	}
 297              		.loc 1 236 0 discriminator 4
 298 0058 4FF4F070 		mov	r0, #480
 299 005c FFF7FEFF 		bl	CyDelayCycles
 300              	.LVL24:
 233:Generated_Source\PSoC5/cyfitter_cfg.c **** 	{ 
 301              		.loc 1 233 0 discriminator 4
 302 0060 013D     		subs	r5, r5, #1
 303              	.LVL25:
 304              	.L17:
 233:Generated_Source\PSoC5/cyfitter_cfg.c **** 	{ 
 305              		.loc 1 233 0 is_stmt 0 discriminator 1
 306 0062 0DB1     		cbz	r5, .L18
 233:Generated_Source\PSoC5/cyfitter_cfg.c **** 	{ 
 307              		.loc 1 233 0 discriminator 3
 308 0064 032C     		cmp	r4, #3
 309 0066 EFD1     		bne	.L19
 310              	.L18:
 239:Generated_Source\PSoC5/cyfitter_cfg.c **** 	{
 311              		.loc 1 239 0 is_stmt 1
 312 0068 15B9     		cbnz	r5, .L20
 241:Generated_Source\PSoC5/cyfitter_cfg.c **** 	}
 313              		.loc 1 241 0
 314 006a 0320     		movs	r0, #3
ARM GAS  C:\Users\Soren\AppData\Local\Temp\ccEUhYBU.s 			page 12


 315 006c FFF7FEFF 		bl	CyClockStartupError
 316              	.LVL26:
 317              	.L20:
 245:Generated_Source\PSoC5/cyfitter_cfg.c **** 	CY_SET_XTND_REG8((void CYFAR *)(CYREG_CLKDIST_MSTR0), 0x07u);
 318              		.loc 1 245 0
 319 0070 194B     		ldr	r3, .L22+32
 320 0072 4FF48072 		mov	r2, #256
 321 0076 1A80     		strh	r2, [r3]	@ movhi
 246:Generated_Source\PSoC5/cyfitter_cfg.c **** 	CY_SET_XTND_REG8((void CYFAR *)(CYREG_CLKDIST_BCFG0), 0x00u);
 322              		.loc 1 246 0
 323 0078 0722     		movs	r2, #7
 324 007a 1A70     		strb	r2, [r3]
 247:Generated_Source\PSoC5/cyfitter_cfg.c **** 	CY_SET_XTND_REG8((void CYFAR *)(CYREG_CLKDIST_BCFG2), 0x48u);
 325              		.loc 1 247 0
 326 007c 0022     		movs	r2, #0
 327 007e 1749     		ldr	r1, .L22+36
 328 0080 0A70     		strb	r2, [r1]
 248:Generated_Source\PSoC5/cyfitter_cfg.c **** 	CY_SET_XTND_REG8((void CYFAR *)(CYREG_CLKDIST_MSTR0), 0x00u);
 329              		.loc 1 248 0
 330 0082 4820     		movs	r0, #72
 331 0084 0231     		adds	r1, r1, #2
 332 0086 0870     		strb	r0, [r1]
 249:Generated_Source\PSoC5/cyfitter_cfg.c **** 	CY_SET_XTND_REG8((void CYFAR *)(CYREG_CLKDIST_LD), 0x02u);
 333              		.loc 1 249 0
 334 0088 1A70     		strb	r2, [r3]
 250:Generated_Source\PSoC5/cyfitter_cfg.c **** 	CY_SET_XTND_REG8((void CYFAR *)(CYREG_CLKDIST_DLY1), 0x04u);
 335              		.loc 1 250 0
 336 008a 0222     		movs	r2, #2
 337 008c 033B     		subs	r3, r3, #3
 338 008e 1A70     		strb	r2, [r3]
 251:Generated_Source\PSoC5/cyfitter_cfg.c **** 
 339              		.loc 1 251 0
 340 0090 0422     		movs	r2, #4
 341 0092 0A33     		adds	r3, r3, #10
 342 0094 1A70     		strb	r2, [r3]
 253:Generated_Source\PSoC5/cyfitter_cfg.c **** 	CY_SET_XTND_REG8((void CYFAR *)(CYREG_PM_ACT_CFG1), ((CY_GET_XTND_REG8((void CYFAR *)CYREG_PM_ACT_
 343              		.loc 1 253 0
 344 0096 124A     		ldr	r2, .L22+40
 345 0098 1378     		ldrb	r3, [r2]	@ zero_extendqisi2
 346 009a 43F00103 		orr	r3, r3, #1
 347 009e 1370     		strb	r3, [r2]
 254:Generated_Source\PSoC5/cyfitter_cfg.c **** 	CY_SET_XTND_REG8((void CYFAR *)(CYREG_PM_ACT_CFG0), ((CY_GET_XTND_REG8((void CYFAR *)CYREG_PM_ACT_
 348              		.loc 1 254 0
 349 00a0 013A     		subs	r2, r2, #1
 350 00a2 1378     		ldrb	r3, [r2]	@ zero_extendqisi2
 351 00a4 43F00103 		orr	r3, r3, #1
 352 00a8 1370     		strb	r3, [r2]
 255:Generated_Source\PSoC5/cyfitter_cfg.c **** }
 353              		.loc 1 255 0
 354 00aa 013A     		subs	r2, r2, #1
 355 00ac 1378     		ldrb	r3, [r2]	@ zero_extendqisi2
 356 00ae 43F08003 		orr	r3, r3, #128
 357 00b2 1370     		strb	r3, [r2]
 358 00b4 38BD     		pop	{r3, r4, r5, pc}
 359              	.LVL27:
 360              	.L23:
 361 00b6 00BF     		.align	2
ARM GAS  C:\Users\Soren\AppData\Local\Temp\ccEUhYBU.s 			page 13


 362              	.L22:
 363 00b8 80400040 		.word	1073758336
 364 00bc 00410040 		.word	1073758464
 365 00c0 74000048 		.word	1207959668
 366 00c4 00430040 		.word	1073758976
 367 00c8 08010049 		.word	1224737032
 368 00cc A1460040 		.word	1073759905
 369 00d0 22420040 		.word	1073758754
 370 00d4 25420040 		.word	1073758757
 371 00d8 04400040 		.word	1073758212
 372 00dc 06400040 		.word	1073758214
 373 00e0 A2430040 		.word	1073759138
 374              		.cfi_endproc
 375              	.LFE5:
 376              		.size	ClockSetup, .-ClockSetup
 377              		.section	.text.SetAnalogRoutingPumps,"ax",%progbits
 378              		.align	2
 379              		.global	SetAnalogRoutingPumps
 380              		.thumb
 381              		.thumb_func
 382              		.type	SetAnalogRoutingPumps, %function
 383              	SetAnalogRoutingPumps:
 384              	.LFB7:
 289:Generated_Source\PSoC5/cyfitter_cfg.c **** }
 290:Generated_Source\PSoC5/cyfitter_cfg.c **** 
 291:Generated_Source\PSoC5/cyfitter_cfg.c **** 
 292:Generated_Source\PSoC5/cyfitter_cfg.c **** /*******************************************************************************
 293:Generated_Source\PSoC5/cyfitter_cfg.c **** * Function Name: SetAnalogRoutingPumps
 294:Generated_Source\PSoC5/cyfitter_cfg.c **** ********************************************************************************
 295:Generated_Source\PSoC5/cyfitter_cfg.c **** *
 296:Generated_Source\PSoC5/cyfitter_cfg.c **** * Summary:
 297:Generated_Source\PSoC5/cyfitter_cfg.c **** * Enables or disables the analog pumps feeding analog routing switches.
 298:Generated_Source\PSoC5/cyfitter_cfg.c **** * Intended to be called at startup, based on the Vdda system configuration;
 299:Generated_Source\PSoC5/cyfitter_cfg.c **** * may be called during operation when the user informs us that the Vdda voltage
 300:Generated_Source\PSoC5/cyfitter_cfg.c **** * crossed the pump threshold.
 301:Generated_Source\PSoC5/cyfitter_cfg.c **** *
 302:Generated_Source\PSoC5/cyfitter_cfg.c **** * Parameters:
 303:Generated_Source\PSoC5/cyfitter_cfg.c **** *  enabled - 1 to enable the pumps, 0 to disable the pumps
 304:Generated_Source\PSoC5/cyfitter_cfg.c **** *
 305:Generated_Source\PSoC5/cyfitter_cfg.c **** * Return:
 306:Generated_Source\PSoC5/cyfitter_cfg.c **** *  void
 307:Generated_Source\PSoC5/cyfitter_cfg.c **** *
 308:Generated_Source\PSoC5/cyfitter_cfg.c **** *******************************************************************************/
 309:Generated_Source\PSoC5/cyfitter_cfg.c **** void SetAnalogRoutingPumps(uint8 enabled)
 310:Generated_Source\PSoC5/cyfitter_cfg.c **** {
 385              		.loc 1 310 0
 386              		.cfi_startproc
 387              		@ args = 0, pretend = 0, frame = 0
 388              		@ frame_needed = 0, uses_anonymous_args = 0
 389              		@ link register save eliminated.
 390              	.LVL28:
 311:Generated_Source\PSoC5/cyfitter_cfg.c **** 	uint8 regValue = CY_GET_XTND_REG8((void CYFAR *)CYREG_PUMP_CR0);
 391              		.loc 1 311 0
 392 0000 054B     		ldr	r3, .L27
 393 0002 1B78     		ldrb	r3, [r3]	@ zero_extendqisi2
 394 0004 DBB2     		uxtb	r3, r3
 395              	.LVL29:
ARM GAS  C:\Users\Soren\AppData\Local\Temp\ccEUhYBU.s 			page 14


 312:Generated_Source\PSoC5/cyfitter_cfg.c **** 	if (enabled != 0u)
 396              		.loc 1 312 0
 397 0006 10B1     		cbz	r0, .L25
 313:Generated_Source\PSoC5/cyfitter_cfg.c **** 	{
 314:Generated_Source\PSoC5/cyfitter_cfg.c **** 		regValue |= 0x22u;
 398              		.loc 1 314 0
 399 0008 43F02203 		orr	r3, r3, #34
 400              	.LVL30:
 401 000c 01E0     		b	.L26
 402              	.L25:
 315:Generated_Source\PSoC5/cyfitter_cfg.c **** 	}
 316:Generated_Source\PSoC5/cyfitter_cfg.c **** 	else
 317:Generated_Source\PSoC5/cyfitter_cfg.c **** 	{
 318:Generated_Source\PSoC5/cyfitter_cfg.c **** 		regValue &= (uint8)~0x22u;
 403              		.loc 1 318 0
 404 000e 03F0DD03 		and	r3, r3, #221
 405              	.LVL31:
 406              	.L26:
 319:Generated_Source\PSoC5/cyfitter_cfg.c **** 	}
 320:Generated_Source\PSoC5/cyfitter_cfg.c **** 	CY_SET_XTND_REG8((void CYFAR *)CYREG_PUMP_CR0, regValue);
 407              		.loc 1 320 0
 408 0012 014A     		ldr	r2, .L27
 409 0014 1370     		strb	r3, [r2]
 410 0016 7047     		bx	lr
 411              	.L28:
 412              		.align	2
 413              	.L27:
 414 0018 76580040 		.word	1073764470
 415              		.cfi_endproc
 416              	.LFE7:
 417              		.size	SetAnalogRoutingPumps, .-SetAnalogRoutingPumps
 418              		.section	.text.AMux_1_Set,"ax",%progbits
 419              		.align	2
 420              		.global	AMux_1_Set
 421              		.thumb
 422              		.thumb_func
 423              		.type	AMux_1_Set, %function
 424              	AMux_1_Set:
 425              	.LFB8:
 321:Generated_Source\PSoC5/cyfitter_cfg.c **** }
 322:Generated_Source\PSoC5/cyfitter_cfg.c **** 
 323:Generated_Source\PSoC5/cyfitter_cfg.c **** #define CY_AMUX_UNUSED CYREG_BOOST_SR
 324:Generated_Source\PSoC5/cyfitter_cfg.c **** /* This is an implementation detail of the AMux. Code that depends on it may be
 325:Generated_Source\PSoC5/cyfitter_cfg.c ****    incompatible with other versions of PSoC Creator. */
 326:Generated_Source\PSoC5/cyfitter_cfg.c **** uint8 CYXDATA * const CYCODE AMux_1__addrTable[6] = {
 327:Generated_Source\PSoC5/cyfitter_cfg.c **** 	(uint8 CYXDATA *)CYREG_CMP2_SW4, (uint8 CYXDATA *)CY_AMUX_UNUSED, 
 328:Generated_Source\PSoC5/cyfitter_cfg.c **** 	(uint8 CYXDATA *)CYREG_PRT0_AG, (uint8 CYXDATA *)CYREG_DSM0_SW0, 
 329:Generated_Source\PSoC5/cyfitter_cfg.c **** 	(uint8 CYXDATA *)CYREG_PRT0_AG, (uint8 CYXDATA *)CY_AMUX_UNUSED, 
 330:Generated_Source\PSoC5/cyfitter_cfg.c **** };
 331:Generated_Source\PSoC5/cyfitter_cfg.c **** 
 332:Generated_Source\PSoC5/cyfitter_cfg.c **** /* This is an implementation detail of the AMux. Code that depends on it may be
 333:Generated_Source\PSoC5/cyfitter_cfg.c ****    incompatible with other versions of PSoC Creator. */
 334:Generated_Source\PSoC5/cyfitter_cfg.c **** const uint8 CYCODE AMux_1__maskTable[6] = {
 335:Generated_Source\PSoC5/cyfitter_cfg.c **** 	0x20u, 0x00u, 
 336:Generated_Source\PSoC5/cyfitter_cfg.c **** 	0x40u, 0x40u, 
 337:Generated_Source\PSoC5/cyfitter_cfg.c **** 	0x20u, 0x00u, 
 338:Generated_Source\PSoC5/cyfitter_cfg.c **** };
ARM GAS  C:\Users\Soren\AppData\Local\Temp\ccEUhYBU.s 			page 15


 339:Generated_Source\PSoC5/cyfitter_cfg.c **** 
 340:Generated_Source\PSoC5/cyfitter_cfg.c **** /*******************************************************************************
 341:Generated_Source\PSoC5/cyfitter_cfg.c **** * Function Name: AMux_1_Set
 342:Generated_Source\PSoC5/cyfitter_cfg.c **** ********************************************************************************
 343:Generated_Source\PSoC5/cyfitter_cfg.c **** * Summary:
 344:Generated_Source\PSoC5/cyfitter_cfg.c **** *  This function is used to set a particular channel as active on the AMux.
 345:Generated_Source\PSoC5/cyfitter_cfg.c **** *
 346:Generated_Source\PSoC5/cyfitter_cfg.c **** * Parameters:  
 347:Generated_Source\PSoC5/cyfitter_cfg.c **** *   channel - The mux channel input to set as active
 348:Generated_Source\PSoC5/cyfitter_cfg.c **** *
 349:Generated_Source\PSoC5/cyfitter_cfg.c **** * Return:
 350:Generated_Source\PSoC5/cyfitter_cfg.c **** *   void
 351:Generated_Source\PSoC5/cyfitter_cfg.c **** *
 352:Generated_Source\PSoC5/cyfitter_cfg.c **** *******************************************************************************/
 353:Generated_Source\PSoC5/cyfitter_cfg.c **** void AMux_1_Set(uint8 channel)
 354:Generated_Source\PSoC5/cyfitter_cfg.c **** {
 426              		.loc 1 354 0
 427              		.cfi_startproc
 428              		@ args = 0, pretend = 0, frame = 0
 429              		@ frame_needed = 0, uses_anonymous_args = 0
 430              		@ link register save eliminated.
 355:Generated_Source\PSoC5/cyfitter_cfg.c **** 	if (channel < 3)
 431              		.loc 1 355 0
 432 0000 0228     		cmp	r0, #2
 433 0002 15D8     		bhi	.L33
 354:Generated_Source\PSoC5/cyfitter_cfg.c **** 	if (channel < 3)
 434              		.loc 1 354 0
 435 0004 10B4     		push	{r4}
 436              		.cfi_def_cfa_offset 4
 437              		.cfi_offset 4, -4
 356:Generated_Source\PSoC5/cyfitter_cfg.c **** 	{
 357:Generated_Source\PSoC5/cyfitter_cfg.c **** 		channel += channel;
 438              		.loc 1 357 0
 439 0006 4000     		lsls	r0, r0, #1
 440 0008 C0B2     		uxtb	r0, r0
 358:Generated_Source\PSoC5/cyfitter_cfg.c **** 		*AMux_1__addrTable[channel] |= AMux_1__maskTable[channel];
 441              		.loc 1 358 0
 442 000a 0A4B     		ldr	r3, .L34
 443 000c 53F82010 		ldr	r1, [r3, r0, lsl #2]
 444 0010 1A18     		adds	r2, r3, r0
 445 0012 147E     		ldrb	r4, [r2, #24]	@ zero_extendqisi2
 446 0014 0A78     		ldrb	r2, [r1]	@ zero_extendqisi2
 447 0016 2243     		orrs	r2, r2, r4
 448 0018 0A70     		strb	r2, [r1]
 359:Generated_Source\PSoC5/cyfitter_cfg.c **** 		channel++;
 449              		.loc 1 359 0
 450 001a 0130     		adds	r0, r0, #1
 451 001c C0B2     		uxtb	r0, r0
 360:Generated_Source\PSoC5/cyfitter_cfg.c **** 		*AMux_1__addrTable[channel] |= AMux_1__maskTable[channel];
 452              		.loc 1 360 0
 453 001e 53F82020 		ldr	r2, [r3, r0, lsl #2]
 454 0022 1844     		add	r0, r0, r3
 455 0024 017E     		ldrb	r1, [r0, #24]	@ zero_extendqisi2
 456 0026 1378     		ldrb	r3, [r2]	@ zero_extendqisi2
 457 0028 0B43     		orrs	r3, r3, r1
 458 002a 1370     		strb	r3, [r2]
 361:Generated_Source\PSoC5/cyfitter_cfg.c **** 	}
ARM GAS  C:\Users\Soren\AppData\Local\Temp\ccEUhYBU.s 			page 16


 362:Generated_Source\PSoC5/cyfitter_cfg.c **** }
 459              		.loc 1 362 0
 460 002c 5DF8044B 		ldr	r4, [sp], #4
 461              		.cfi_restore 4
 462              		.cfi_def_cfa_offset 0
 463              	.L33:
 464 0030 7047     		bx	lr
 465              	.L35:
 466 0032 00BF     		.align	2
 467              	.L34:
 468 0034 00000000 		.word	.LANCHOR0
 469              		.cfi_endproc
 470              	.LFE8:
 471              		.size	AMux_1_Set, .-AMux_1_Set
 472              		.section	.text.AMux_1_Unset,"ax",%progbits
 473              		.align	2
 474              		.global	AMux_1_Unset
 475              		.thumb
 476              		.thumb_func
 477              		.type	AMux_1_Unset, %function
 478              	AMux_1_Unset:
 479              	.LFB9:
 363:Generated_Source\PSoC5/cyfitter_cfg.c **** 
 364:Generated_Source\PSoC5/cyfitter_cfg.c **** /*******************************************************************************
 365:Generated_Source\PSoC5/cyfitter_cfg.c **** * Function Name: AMux_1_Unset
 366:Generated_Source\PSoC5/cyfitter_cfg.c **** ********************************************************************************
 367:Generated_Source\PSoC5/cyfitter_cfg.c **** * Summary:
 368:Generated_Source\PSoC5/cyfitter_cfg.c **** *  This function is used to clear a particular channel from being active on the
 369:Generated_Source\PSoC5/cyfitter_cfg.c **** *  AMux.
 370:Generated_Source\PSoC5/cyfitter_cfg.c **** *
 371:Generated_Source\PSoC5/cyfitter_cfg.c **** * Parameters:  
 372:Generated_Source\PSoC5/cyfitter_cfg.c **** *   channel - The mux channel input to mark inactive
 373:Generated_Source\PSoC5/cyfitter_cfg.c **** *
 374:Generated_Source\PSoC5/cyfitter_cfg.c **** * Return:
 375:Generated_Source\PSoC5/cyfitter_cfg.c **** *   void
 376:Generated_Source\PSoC5/cyfitter_cfg.c **** *
 377:Generated_Source\PSoC5/cyfitter_cfg.c **** *******************************************************************************/
 378:Generated_Source\PSoC5/cyfitter_cfg.c **** void AMux_1_Unset(uint8 channel)
 379:Generated_Source\PSoC5/cyfitter_cfg.c **** {
 480              		.loc 1 379 0
 481              		.cfi_startproc
 482              		@ args = 0, pretend = 0, frame = 0
 483              		@ frame_needed = 0, uses_anonymous_args = 0
 484              		@ link register save eliminated.
 380:Generated_Source\PSoC5/cyfitter_cfg.c **** 	if (channel < 3)
 485              		.loc 1 380 0
 486 0000 0228     		cmp	r0, #2
 487 0002 17D8     		bhi	.L40
 379:Generated_Source\PSoC5/cyfitter_cfg.c **** 	if (channel < 3)
 488              		.loc 1 379 0
 489 0004 10B4     		push	{r4}
 490              		.cfi_def_cfa_offset 4
 491              		.cfi_offset 4, -4
 381:Generated_Source\PSoC5/cyfitter_cfg.c **** 	{
 382:Generated_Source\PSoC5/cyfitter_cfg.c **** 		channel += channel;
 492              		.loc 1 382 0
 493 0006 4000     		lsls	r0, r0, #1
ARM GAS  C:\Users\Soren\AppData\Local\Temp\ccEUhYBU.s 			page 17


 494 0008 C0B2     		uxtb	r0, r0
 383:Generated_Source\PSoC5/cyfitter_cfg.c **** 		*AMux_1__addrTable[channel] &= (uint8)~AMux_1__maskTable[channel];
 495              		.loc 1 383 0
 496 000a 0B4B     		ldr	r3, .L41
 497 000c 53F82010 		ldr	r1, [r3, r0, lsl #2]
 498 0010 1A18     		adds	r2, r3, r0
 499 0012 147E     		ldrb	r4, [r2, #24]	@ zero_extendqisi2
 500 0014 0A78     		ldrb	r2, [r1]	@ zero_extendqisi2
 501 0016 22EA0402 		bic	r2, r2, r4
 502 001a 0A70     		strb	r2, [r1]
 384:Generated_Source\PSoC5/cyfitter_cfg.c **** 		channel++;
 503              		.loc 1 384 0
 504 001c 0130     		adds	r0, r0, #1
 505 001e C0B2     		uxtb	r0, r0
 385:Generated_Source\PSoC5/cyfitter_cfg.c **** 		*AMux_1__addrTable[channel] &= (uint8)~AMux_1__maskTable[channel];
 506              		.loc 1 385 0
 507 0020 53F82020 		ldr	r2, [r3, r0, lsl #2]
 508 0024 1844     		add	r0, r0, r3
 509 0026 017E     		ldrb	r1, [r0, #24]	@ zero_extendqisi2
 510 0028 1378     		ldrb	r3, [r2]	@ zero_extendqisi2
 511 002a 23EA0103 		bic	r3, r3, r1
 512 002e 1370     		strb	r3, [r2]
 386:Generated_Source\PSoC5/cyfitter_cfg.c **** 	}
 387:Generated_Source\PSoC5/cyfitter_cfg.c **** }
 513              		.loc 1 387 0
 514 0030 5DF8044B 		ldr	r4, [sp], #4
 515              		.cfi_restore 4
 516              		.cfi_def_cfa_offset 0
 517              	.L40:
 518 0034 7047     		bx	lr
 519              	.L42:
 520 0036 00BF     		.align	2
 521              	.L41:
 522 0038 00000000 		.word	.LANCHOR0
 523              		.cfi_endproc
 524              	.LFE9:
 525              		.size	AMux_1_Unset, .-AMux_1_Unset
 526              		.section	.text.AMux_2_Set,"ax",%progbits
 527              		.align	2
 528              		.global	AMux_2_Set
 529              		.thumb
 530              		.thumb_func
 531              		.type	AMux_2_Set, %function
 532              	AMux_2_Set:
 533              	.LFB10:
 388:Generated_Source\PSoC5/cyfitter_cfg.c **** 
 389:Generated_Source\PSoC5/cyfitter_cfg.c **** /* This is an implementation detail of the AMux. Code that depends on it may be
 390:Generated_Source\PSoC5/cyfitter_cfg.c ****    incompatible with other versions of PSoC Creator. */
 391:Generated_Source\PSoC5/cyfitter_cfg.c **** uint8 CYXDATA * const CYCODE AMux_2__addrTable[4] = {
 392:Generated_Source\PSoC5/cyfitter_cfg.c **** 	(uint8 CYXDATA *)CYREG_PRT0_AG, (uint8 CYXDATA *)CY_AMUX_UNUSED, 
 393:Generated_Source\PSoC5/cyfitter_cfg.c **** 	(uint8 CYXDATA *)CYREG_OPAMP2_SW, (uint8 CYXDATA *)CYREG_OPAMP2_MX, 
 394:Generated_Source\PSoC5/cyfitter_cfg.c **** };
 395:Generated_Source\PSoC5/cyfitter_cfg.c **** 
 396:Generated_Source\PSoC5/cyfitter_cfg.c **** /* This is an implementation detail of the AMux. Code that depends on it may be
 397:Generated_Source\PSoC5/cyfitter_cfg.c ****    incompatible with other versions of PSoC Creator. */
 398:Generated_Source\PSoC5/cyfitter_cfg.c **** const uint8 CYCODE AMux_2__maskTable[4] = {
 399:Generated_Source\PSoC5/cyfitter_cfg.c **** 	0x80u, 0x00u, 
ARM GAS  C:\Users\Soren\AppData\Local\Temp\ccEUhYBU.s 			page 18


 400:Generated_Source\PSoC5/cyfitter_cfg.c **** 	0x04u, 0x04u, 
 401:Generated_Source\PSoC5/cyfitter_cfg.c **** };
 402:Generated_Source\PSoC5/cyfitter_cfg.c **** 
 403:Generated_Source\PSoC5/cyfitter_cfg.c **** /*******************************************************************************
 404:Generated_Source\PSoC5/cyfitter_cfg.c **** * Function Name: AMux_2_Set
 405:Generated_Source\PSoC5/cyfitter_cfg.c **** ********************************************************************************
 406:Generated_Source\PSoC5/cyfitter_cfg.c **** * Summary:
 407:Generated_Source\PSoC5/cyfitter_cfg.c **** *  This function is used to set a particular channel as active on the AMux.
 408:Generated_Source\PSoC5/cyfitter_cfg.c **** *
 409:Generated_Source\PSoC5/cyfitter_cfg.c **** * Parameters:  
 410:Generated_Source\PSoC5/cyfitter_cfg.c **** *   channel - The mux channel input to set as active
 411:Generated_Source\PSoC5/cyfitter_cfg.c **** *
 412:Generated_Source\PSoC5/cyfitter_cfg.c **** * Return:
 413:Generated_Source\PSoC5/cyfitter_cfg.c **** *   void
 414:Generated_Source\PSoC5/cyfitter_cfg.c **** *
 415:Generated_Source\PSoC5/cyfitter_cfg.c **** *******************************************************************************/
 416:Generated_Source\PSoC5/cyfitter_cfg.c **** void AMux_2_Set(uint8 channel)
 417:Generated_Source\PSoC5/cyfitter_cfg.c **** {
 534              		.loc 1 417 0
 535              		.cfi_startproc
 536              		@ args = 0, pretend = 0, frame = 0
 537              		@ frame_needed = 0, uses_anonymous_args = 0
 538              		@ link register save eliminated.
 418:Generated_Source\PSoC5/cyfitter_cfg.c **** 	if (channel < 2)
 539              		.loc 1 418 0
 540 0000 0128     		cmp	r0, #1
 541 0002 19D8     		bhi	.L47
 417:Generated_Source\PSoC5/cyfitter_cfg.c **** 	if (channel < 2)
 542              		.loc 1 417 0
 543 0004 10B4     		push	{r4}
 544              		.cfi_def_cfa_offset 4
 545              		.cfi_offset 4, -4
 419:Generated_Source\PSoC5/cyfitter_cfg.c **** 	{
 420:Generated_Source\PSoC5/cyfitter_cfg.c **** 		channel += channel;
 546              		.loc 1 420 0
 547 0006 4000     		lsls	r0, r0, #1
 548 0008 C0B2     		uxtb	r0, r0
 421:Generated_Source\PSoC5/cyfitter_cfg.c **** 		*AMux_2__addrTable[channel] |= AMux_2__maskTable[channel];
 549              		.loc 1 421 0
 550 000a 0C4B     		ldr	r3, .L48
 551 000c 03EB8002 		add	r2, r3, r0, lsl #2
 552 0010 116A     		ldr	r1, [r2, #32]
 553 0012 1A18     		adds	r2, r3, r0
 554 0014 92F83040 		ldrb	r4, [r2, #48]	@ zero_extendqisi2
 555 0018 0A78     		ldrb	r2, [r1]	@ zero_extendqisi2
 556 001a 2243     		orrs	r2, r2, r4
 557 001c 0A70     		strb	r2, [r1]
 422:Generated_Source\PSoC5/cyfitter_cfg.c **** 		channel++;
 558              		.loc 1 422 0
 559 001e 0130     		adds	r0, r0, #1
 560 0020 C0B2     		uxtb	r0, r0
 423:Generated_Source\PSoC5/cyfitter_cfg.c **** 		*AMux_2__addrTable[channel] |= AMux_2__maskTable[channel];
 561              		.loc 1 423 0
 562 0022 03EB8002 		add	r2, r3, r0, lsl #2
 563 0026 126A     		ldr	r2, [r2, #32]
 564 0028 1844     		add	r0, r0, r3
 565 002a 90F83010 		ldrb	r1, [r0, #48]	@ zero_extendqisi2
ARM GAS  C:\Users\Soren\AppData\Local\Temp\ccEUhYBU.s 			page 19


 566 002e 1378     		ldrb	r3, [r2]	@ zero_extendqisi2
 567 0030 0B43     		orrs	r3, r3, r1
 568 0032 1370     		strb	r3, [r2]
 424:Generated_Source\PSoC5/cyfitter_cfg.c **** 	}
 425:Generated_Source\PSoC5/cyfitter_cfg.c **** }
 569              		.loc 1 425 0
 570 0034 5DF8044B 		ldr	r4, [sp], #4
 571              		.cfi_restore 4
 572              		.cfi_def_cfa_offset 0
 573              	.L47:
 574 0038 7047     		bx	lr
 575              	.L49:
 576 003a 00BF     		.align	2
 577              	.L48:
 578 003c 00000000 		.word	.LANCHOR0
 579              		.cfi_endproc
 580              	.LFE10:
 581              		.size	AMux_2_Set, .-AMux_2_Set
 582              		.section	.text.AMux_2_Unset,"ax",%progbits
 583              		.align	2
 584              		.global	AMux_2_Unset
 585              		.thumb
 586              		.thumb_func
 587              		.type	AMux_2_Unset, %function
 588              	AMux_2_Unset:
 589              	.LFB11:
 426:Generated_Source\PSoC5/cyfitter_cfg.c **** 
 427:Generated_Source\PSoC5/cyfitter_cfg.c **** /*******************************************************************************
 428:Generated_Source\PSoC5/cyfitter_cfg.c **** * Function Name: AMux_2_Unset
 429:Generated_Source\PSoC5/cyfitter_cfg.c **** ********************************************************************************
 430:Generated_Source\PSoC5/cyfitter_cfg.c **** * Summary:
 431:Generated_Source\PSoC5/cyfitter_cfg.c **** *  This function is used to clear a particular channel from being active on the
 432:Generated_Source\PSoC5/cyfitter_cfg.c **** *  AMux.
 433:Generated_Source\PSoC5/cyfitter_cfg.c **** *
 434:Generated_Source\PSoC5/cyfitter_cfg.c **** * Parameters:  
 435:Generated_Source\PSoC5/cyfitter_cfg.c **** *   channel - The mux channel input to mark inactive
 436:Generated_Source\PSoC5/cyfitter_cfg.c **** *
 437:Generated_Source\PSoC5/cyfitter_cfg.c **** * Return:
 438:Generated_Source\PSoC5/cyfitter_cfg.c **** *   void
 439:Generated_Source\PSoC5/cyfitter_cfg.c **** *
 440:Generated_Source\PSoC5/cyfitter_cfg.c **** *******************************************************************************/
 441:Generated_Source\PSoC5/cyfitter_cfg.c **** void AMux_2_Unset(uint8 channel)
 442:Generated_Source\PSoC5/cyfitter_cfg.c **** {
 590              		.loc 1 442 0
 591              		.cfi_startproc
 592              		@ args = 0, pretend = 0, frame = 0
 593              		@ frame_needed = 0, uses_anonymous_args = 0
 594              		@ link register save eliminated.
 443:Generated_Source\PSoC5/cyfitter_cfg.c **** 	if (channel < 2)
 595              		.loc 1 443 0
 596 0000 0128     		cmp	r0, #1
 597 0002 1BD8     		bhi	.L54
 442:Generated_Source\PSoC5/cyfitter_cfg.c **** 	if (channel < 2)
 598              		.loc 1 442 0
 599 0004 10B4     		push	{r4}
 600              		.cfi_def_cfa_offset 4
 601              		.cfi_offset 4, -4
ARM GAS  C:\Users\Soren\AppData\Local\Temp\ccEUhYBU.s 			page 20


 444:Generated_Source\PSoC5/cyfitter_cfg.c **** 	{
 445:Generated_Source\PSoC5/cyfitter_cfg.c **** 		channel += channel;
 602              		.loc 1 445 0
 603 0006 4000     		lsls	r0, r0, #1
 604 0008 C0B2     		uxtb	r0, r0
 446:Generated_Source\PSoC5/cyfitter_cfg.c **** 		*AMux_2__addrTable[channel] &= (uint8)~AMux_2__maskTable[channel];
 605              		.loc 1 446 0
 606 000a 0D4B     		ldr	r3, .L55
 607 000c 03EB8002 		add	r2, r3, r0, lsl #2
 608 0010 116A     		ldr	r1, [r2, #32]
 609 0012 1A18     		adds	r2, r3, r0
 610 0014 92F83040 		ldrb	r4, [r2, #48]	@ zero_extendqisi2
 611 0018 0A78     		ldrb	r2, [r1]	@ zero_extendqisi2
 612 001a 22EA0402 		bic	r2, r2, r4
 613 001e 0A70     		strb	r2, [r1]
 447:Generated_Source\PSoC5/cyfitter_cfg.c **** 		channel++;
 614              		.loc 1 447 0
 615 0020 0130     		adds	r0, r0, #1
 616 0022 C0B2     		uxtb	r0, r0
 448:Generated_Source\PSoC5/cyfitter_cfg.c **** 		*AMux_2__addrTable[channel] &= (uint8)~AMux_2__maskTable[channel];
 617              		.loc 1 448 0
 618 0024 03EB8002 		add	r2, r3, r0, lsl #2
 619 0028 126A     		ldr	r2, [r2, #32]
 620 002a 1844     		add	r0, r0, r3
 621 002c 90F83010 		ldrb	r1, [r0, #48]	@ zero_extendqisi2
 622 0030 1378     		ldrb	r3, [r2]	@ zero_extendqisi2
 623 0032 23EA0103 		bic	r3, r3, r1
 624 0036 1370     		strb	r3, [r2]
 449:Generated_Source\PSoC5/cyfitter_cfg.c **** 	}
 450:Generated_Source\PSoC5/cyfitter_cfg.c **** }
 625              		.loc 1 450 0
 626 0038 5DF8044B 		ldr	r4, [sp], #4
 627              		.cfi_restore 4
 628              		.cfi_def_cfa_offset 0
 629              	.L54:
 630 003c 7047     		bx	lr
 631              	.L56:
 632 003e 00BF     		.align	2
 633              	.L55:
 634 0040 00000000 		.word	.LANCHOR0
 635              		.cfi_endproc
 636              	.LFE11:
 637              		.size	AMux_2_Unset, .-AMux_2_Unset
 638              		.section	.text.cyfitter_cfg,"ax",%progbits
 639              		.align	2
 640              		.global	cyfitter_cfg
 641              		.thumb
 642              		.thumb_func
 643              		.type	cyfitter_cfg, %function
 644              	cyfitter_cfg:
 645              	.LFB12:
 451:Generated_Source\PSoC5/cyfitter_cfg.c **** 
 452:Generated_Source\PSoC5/cyfitter_cfg.c **** 
 453:Generated_Source\PSoC5/cyfitter_cfg.c **** 
 454:Generated_Source\PSoC5/cyfitter_cfg.c **** /*******************************************************************************
 455:Generated_Source\PSoC5/cyfitter_cfg.c **** * Function Name: cyfitter_cfg
 456:Generated_Source\PSoC5/cyfitter_cfg.c **** ********************************************************************************
ARM GAS  C:\Users\Soren\AppData\Local\Temp\ccEUhYBU.s 			page 21


 457:Generated_Source\PSoC5/cyfitter_cfg.c **** * Summary:
 458:Generated_Source\PSoC5/cyfitter_cfg.c **** *  This function is called by the start-up code for the selected device. It
 459:Generated_Source\PSoC5/cyfitter_cfg.c **** *  performs all of the necessary device configuration based on the design
 460:Generated_Source\PSoC5/cyfitter_cfg.c **** *  settings.  This includes settings from the Design Wide Resources (DWR) such
 461:Generated_Source\PSoC5/cyfitter_cfg.c **** *  as Clocks and Pins as well as any component configuration that is necessary.
 462:Generated_Source\PSoC5/cyfitter_cfg.c **** *
 463:Generated_Source\PSoC5/cyfitter_cfg.c **** * Parameters:  
 464:Generated_Source\PSoC5/cyfitter_cfg.c **** *   void
 465:Generated_Source\PSoC5/cyfitter_cfg.c **** *
 466:Generated_Source\PSoC5/cyfitter_cfg.c **** * Return:
 467:Generated_Source\PSoC5/cyfitter_cfg.c **** *   void
 468:Generated_Source\PSoC5/cyfitter_cfg.c **** *
 469:Generated_Source\PSoC5/cyfitter_cfg.c **** *******************************************************************************/
 470:Generated_Source\PSoC5/cyfitter_cfg.c **** 
 471:Generated_Source\PSoC5/cyfitter_cfg.c **** void cyfitter_cfg(void)
 472:Generated_Source\PSoC5/cyfitter_cfg.c **** {
 646              		.loc 1 472 0
 647              		.cfi_startproc
 648              		@ args = 0, pretend = 0, frame = 0
 649              		@ frame_needed = 0, uses_anonymous_args = 0
 650 0000 38B5     		push	{r3, r4, r5, lr}
 651              		.cfi_def_cfa_offset 16
 652              		.cfi_offset 3, -16
 653              		.cfi_offset 4, -12
 654              		.cfi_offset 5, -8
 655              		.cfi_offset 14, -4
 473:Generated_Source\PSoC5/cyfitter_cfg.c **** #ifdef CYGlobalIntDisable
 474:Generated_Source\PSoC5/cyfitter_cfg.c **** 	/* Disable interrupts by default. Let user enable if/when they want. */
 475:Generated_Source\PSoC5/cyfitter_cfg.c **** 	CYGlobalIntDisable
 656              		.loc 1 475 0
 657              	@ 475 "Generated_Source\PSoC5\cyfitter_cfg.c" 1
 658 0002 72B6     		CPSID   i
 659              	@ 0 "" 2
 476:Generated_Source\PSoC5/cyfitter_cfg.c **** #endif
 477:Generated_Source\PSoC5/cyfitter_cfg.c **** 
 478:Generated_Source\PSoC5/cyfitter_cfg.c **** 	/* Enable/Disable Debug functionality based on settings from System DWR */
 479:Generated_Source\PSoC5/cyfitter_cfg.c **** 	CY_SET_XTND_REG8((void CYFAR *)CYREG_MLOGIC_DEBUG, (CY_GET_XTND_REG8((void CYFAR *)CYREG_MLOGIC_DE
 660              		.loc 1 479 0
 661              		.thumb
 662 0004 2C4A     		ldr	r2, .L61
 663 0006 1378     		ldrb	r3, [r2]	@ zero_extendqisi2
 664 0008 43F00403 		orr	r3, r3, #4
 665 000c 1370     		strb	r3, [r2]
 666              	.LVL32:
 667              	.LBB3:
 480:Generated_Source\PSoC5/cyfitter_cfg.c **** 
 481:Generated_Source\PSoC5/cyfitter_cfg.c **** 	{
 482:Generated_Source\PSoC5/cyfitter_cfg.c **** 
 483:Generated_Source\PSoC5/cyfitter_cfg.c **** 		CYPACKED typedef struct {
 484:Generated_Source\PSoC5/cyfitter_cfg.c **** 			void CYFAR *address;
 485:Generated_Source\PSoC5/cyfitter_cfg.c **** 			uint16 size;
 486:Generated_Source\PSoC5/cyfitter_cfg.c **** 		} CYPACKED_ATTR cfg_memset_t;
 487:Generated_Source\PSoC5/cyfitter_cfg.c **** 
 488:Generated_Source\PSoC5/cyfitter_cfg.c **** 		static const cfg_memset_t CYCODE cfg_memset_list [] = {
 489:Generated_Source\PSoC5/cyfitter_cfg.c **** 			/* address, size */
 490:Generated_Source\PSoC5/cyfitter_cfg.c **** 			{(void CYFAR *)(CYREG_PRT2_DR), 80u},
 491:Generated_Source\PSoC5/cyfitter_cfg.c **** 			{(void CYFAR *)(CYREG_PRT12_DR), 16u},
ARM GAS  C:\Users\Soren\AppData\Local\Temp\ccEUhYBU.s 			page 22


 492:Generated_Source\PSoC5/cyfitter_cfg.c **** 			{(void CYFAR *)(CYREG_PRT15_DR), 16u},
 493:Generated_Source\PSoC5/cyfitter_cfg.c **** 			{(void CYFAR *)(CYDEV_UCFG_B0_P0_U0_BASE), 4096u},
 494:Generated_Source\PSoC5/cyfitter_cfg.c **** 			{(void CYFAR *)(CYDEV_UCFG_B1_P2_U0_BASE), 2048u},
 495:Generated_Source\PSoC5/cyfitter_cfg.c **** 			{(void CYFAR *)(CYDEV_UCFG_DSI0_BASE), 2560u},
 496:Generated_Source\PSoC5/cyfitter_cfg.c **** 			{(void CYFAR *)(CYDEV_UCFG_DSI12_BASE), 512u},
 497:Generated_Source\PSoC5/cyfitter_cfg.c **** 			{(void CYFAR *)(CYREG_BCTL0_MDCLK_EN), 32u},
 498:Generated_Source\PSoC5/cyfitter_cfg.c **** 		};
 499:Generated_Source\PSoC5/cyfitter_cfg.c **** 
 500:Generated_Source\PSoC5/cyfitter_cfg.c **** 		uint8 CYDATA i;
 501:Generated_Source\PSoC5/cyfitter_cfg.c **** 
 502:Generated_Source\PSoC5/cyfitter_cfg.c **** 		/* Zero out critical memory blocks before beginning configuration */
 503:Generated_Source\PSoC5/cyfitter_cfg.c **** 		for (i = 0u; i < (sizeof(cfg_memset_list)/sizeof(cfg_memset_list[0])); i++)
 668              		.loc 1 503 0
 669 000e 0024     		movs	r4, #0
 670 0010 0AE0     		b	.L58
 671              	.LVL33:
 672              	.L59:
 673              	.LBB4:
 504:Generated_Source\PSoC5/cyfitter_cfg.c **** 		{
 505:Generated_Source\PSoC5/cyfitter_cfg.c **** 			const cfg_memset_t CYCODE * CYDATA ms = &cfg_memset_list[i];
 506:Generated_Source\PSoC5/cyfitter_cfg.c **** 			CYMEMZERO(ms->address, (size_t)(uint32)(ms->size));
 674              		.loc 1 506 0 discriminator 3
 675 0012 2A49     		ldr	r1, .L61+4
 676 0014 6300     		lsls	r3, r4, #1
 677 0016 1A19     		adds	r2, r3, r4
 678 0018 5200     		lsls	r2, r2, #1
 679 001a 0A44     		add	r2, r2, r1
 680 001c 506B     		ldr	r0, [r2, #52]	@ unaligned
 681 001e 118F     		ldrh	r1, [r2, #56]
 682 0020 FFF7FEFF 		bl	CYMEMZERO
 683              	.LVL34:
 684              	.LBE4:
 503:Generated_Source\PSoC5/cyfitter_cfg.c **** 		{
 685              		.loc 1 503 0 discriminator 3
 686 0024 0134     		adds	r4, r4, #1
 687              	.LVL35:
 688 0026 E4B2     		uxtb	r4, r4
 689              	.LVL36:
 690              	.L58:
 503:Generated_Source\PSoC5/cyfitter_cfg.c **** 		{
 691              		.loc 1 503 0 is_stmt 0 discriminator 1
 692 0028 072C     		cmp	r4, #7
 693 002a F2D9     		bls	.L59
 507:Generated_Source\PSoC5/cyfitter_cfg.c **** 		}
 508:Generated_Source\PSoC5/cyfitter_cfg.c **** 
 509:Generated_Source\PSoC5/cyfitter_cfg.c **** 		cfg_write_bytes32(cy_cfg_addr_table, cy_cfg_data_table);
 694              		.loc 1 509 0 is_stmt 1
 695 002c 4FF09040 		mov	r0, #1207959552
 696 0030 2349     		ldr	r1, .L61+8
 697 0032 FFF7FEFF 		bl	cfg_write_bytes32
 698              	.LVL37:
 510:Generated_Source\PSoC5/cyfitter_cfg.c **** 
 511:Generated_Source\PSoC5/cyfitter_cfg.c **** 		/* Perform normal device configuration. Order is not critical for these items. */
 512:Generated_Source\PSoC5/cyfitter_cfg.c **** 		CY_SET_XTND_REG8((void CYFAR *)(CYREG_DSM0_CR3), 0x0Au);
 699              		.loc 1 512 0
 700 0036 0A22     		movs	r2, #10
 701 0038 224B     		ldr	r3, .L61+12
ARM GAS  C:\Users\Soren\AppData\Local\Temp\ccEUhYBU.s 			page 23


 702 003a 1A70     		strb	r2, [r3]
 513:Generated_Source\PSoC5/cyfitter_cfg.c **** 		CY_SET_XTND_REG16((void CYFAR *)(CYREG_LUT2_CR), 0x0203u);
 703              		.loc 1 513 0
 704 003c 40F20322 		movw	r2, #515
 705 0040 373B     		subs	r3, r3, #55
 706 0042 1A80     		strh	r2, [r3]	@ movhi
 514:Generated_Source\PSoC5/cyfitter_cfg.c **** 
 515:Generated_Source\PSoC5/cyfitter_cfg.c **** 		/* Enable digital routing */
 516:Generated_Source\PSoC5/cyfitter_cfg.c **** 		CY_SET_XTND_REG8((void CYFAR *)CYREG_BCTL0_BANK_CTL, CY_GET_XTND_REG8((void CYFAR *)CYREG_BCTL0_B
 707              		.loc 1 516 0
 708 0044 02F18042 		add	r2, r2, #1073741824
 709 0048 02F5A732 		add	r2, r2, #85504
 710 004c 1378     		ldrb	r3, [r2]	@ zero_extendqisi2
 711 004e 43F00203 		orr	r3, r3, #2
 712 0052 1370     		strb	r3, [r2]
 517:Generated_Source\PSoC5/cyfitter_cfg.c **** 		CY_SET_XTND_REG8((void CYFAR *)CYREG_BCTL1_BANK_CTL, CY_GET_XTND_REG8((void CYFAR *)CYREG_BCTL1_B
 713              		.loc 1 517 0
 714 0054 1032     		adds	r2, r2, #16
 715 0056 1378     		ldrb	r3, [r2]	@ zero_extendqisi2
 716 0058 43F00203 		orr	r3, r3, #2
 717 005c 1370     		strb	r3, [r2]
 518:Generated_Source\PSoC5/cyfitter_cfg.c **** 
 519:Generated_Source\PSoC5/cyfitter_cfg.c **** 		/* Enable UDB array */
 520:Generated_Source\PSoC5/cyfitter_cfg.c **** 		CY_SET_XTND_REG8((void CYFAR *)CYREG_PM_ACT_CFG0, CY_GET_XTND_REG8((void CYFAR *)CYREG_PM_ACT_CFG
 718              		.loc 1 520 0
 719 005e 1A4C     		ldr	r4, .L61+16
 720              	.LVL38:
 721 0060 2378     		ldrb	r3, [r4]	@ zero_extendqisi2
 722 0062 43F04003 		orr	r3, r3, #64
 723 0066 2370     		strb	r3, [r4]
 521:Generated_Source\PSoC5/cyfitter_cfg.c **** 		CY_SET_XTND_REG8((void CYFAR *)CYREG_PM_AVAIL_CR2, CY_GET_XTND_REG8((void CYFAR *)CYREG_PM_AVAIL_
 724              		.loc 1 521 0
 725 0068 A2F58632 		sub	r2, r2, #68608
 726 006c 513A     		subs	r2, r2, #81
 727 006e 1378     		ldrb	r3, [r2]	@ zero_extendqisi2
 728 0070 43F01003 		orr	r3, r3, #16
 729 0074 1370     		strb	r3, [r2]
 730              	.LBE3:
 522:Generated_Source\PSoC5/cyfitter_cfg.c **** 	}
 523:Generated_Source\PSoC5/cyfitter_cfg.c **** 
 524:Generated_Source\PSoC5/cyfitter_cfg.c **** 
 525:Generated_Source\PSoC5/cyfitter_cfg.c **** 	/* Perform second pass device configuration. These items must be configured in specific order afte
 526:Generated_Source\PSoC5/cyfitter_cfg.c **** 	CYCONFIGCPY((void CYFAR *)(CYREG_PRT0_DM0), (const void CYFAR *)(BS_IOPINS0_0_VAL), 8u);
 731              		.loc 1 526 0
 732 0076 1548     		ldr	r0, .L61+20
 733 0078 1549     		ldr	r1, .L61+24
 734 007a 0822     		movs	r2, #8
 735 007c FFF7FEFF 		bl	CYCONFIGCPY
 736              	.LVL39:
 527:Generated_Source\PSoC5/cyfitter_cfg.c **** 	CYCONFIGCPY((void CYFAR *)(CYREG_PRT1_DM0), (const void CYFAR *)(BS_IOPINS0_1_VAL), 8u);
 737              		.loc 1 527 0
 738 0080 1448     		ldr	r0, .L61+28
 739 0082 1549     		ldr	r1, .L61+32
 740 0084 0822     		movs	r2, #8
 741 0086 FFF7FEFF 		bl	CYCONFIGCPY
 742              	.LVL40:
 528:Generated_Source\PSoC5/cyfitter_cfg.c **** 	/* Switch Boost to the precision bandgap reference from its internal reference */
ARM GAS  C:\Users\Soren\AppData\Local\Temp\ccEUhYBU.s 			page 24


 529:Generated_Source\PSoC5/cyfitter_cfg.c **** 	CY_SET_REG8((void CYXDATA *)CYREG_BOOST_CR2, (CY_GET_REG8((void CYXDATA *)CYREG_BOOST_CR2) | 0x08u
 743              		.loc 1 529 0
 744 008a 144A     		ldr	r2, .L61+36
 745 008c 1378     		ldrb	r3, [r2]	@ zero_extendqisi2
 746 008e 43F00803 		orr	r3, r3, #8
 747 0092 1370     		strb	r3, [r2]
 530:Generated_Source\PSoC5/cyfitter_cfg.c **** 
 531:Generated_Source\PSoC5/cyfitter_cfg.c **** 	/* Set Flash Cycles based on max possible frequency in case a glitch occurs during ClockSetup(). *
 532:Generated_Source\PSoC5/cyfitter_cfg.c **** 	CY_SET_XTND_REG8((void CYFAR *)(CYREG_CACHE_CC_CTL), (((CYDEV_INSTRUCT_CACHE_ENABLED) != 0) ? 0x61
 748              		.loc 1 532 0
 749 0094 124D     		ldr	r5, .L61+40
 750 0096 6123     		movs	r3, #97
 751 0098 2B70     		strb	r3, [r5]
 533:Generated_Source\PSoC5/cyfitter_cfg.c **** 	/* Setup clocks based on selections from Clock DWR */
 534:Generated_Source\PSoC5/cyfitter_cfg.c **** 	ClockSetup();
 752              		.loc 1 534 0
 753 009a FFF7FEFF 		bl	ClockSetup
 754              	.LVL41:
 535:Generated_Source\PSoC5/cyfitter_cfg.c **** 	/* Set Flash Cycles based on newly configured 24.00MHz Bus Clock. */
 536:Generated_Source\PSoC5/cyfitter_cfg.c **** 	CY_SET_XTND_REG8((void CYFAR *)(CYREG_CACHE_CC_CTL), (((CYDEV_INSTRUCT_CACHE_ENABLED) != 0) ? 0x81
 755              		.loc 1 536 0
 756 009e 8123     		movs	r3, #129
 757 00a0 2B70     		strb	r3, [r5]
 537:Generated_Source\PSoC5/cyfitter_cfg.c **** 	CY_SET_XTND_REG8((void CYFAR *)(CYREG_PANTHER_WAITPIPE), 0x01u);
 758              		.loc 1 537 0
 759 00a2 0122     		movs	r2, #1
 760 00a4 0F4B     		ldr	r3, .L61+44
 761 00a6 1A70     		strb	r2, [r3]
 538:Generated_Source\PSoC5/cyfitter_cfg.c **** 
 539:Generated_Source\PSoC5/cyfitter_cfg.c **** 	/* Perform basic analog initialization to defaults */
 540:Generated_Source\PSoC5/cyfitter_cfg.c **** 	AnalogSetDefault();
 762              		.loc 1 540 0
 763 00a8 FFF7FEFF 		bl	AnalogSetDefault
 764              	.LVL42:
 541:Generated_Source\PSoC5/cyfitter_cfg.c **** 
 542:Generated_Source\PSoC5/cyfitter_cfg.c **** 	/* Configure alternate active mode */
 543:Generated_Source\PSoC5/cyfitter_cfg.c **** 	CYCONFIGCPY((void CYFAR *)CYDEV_PM_STBY_BASE, (const void CYFAR *)CYDEV_PM_ACT_BASE, 14u);
 765              		.loc 1 543 0
 766 00ac 0E48     		ldr	r0, .L61+48
 767 00ae 2146     		mov	r1, r4
 768 00b0 0E22     		movs	r2, #14
 769 00b2 FFF7FEFF 		bl	CYCONFIGCPY
 770              	.LVL43:
 771 00b6 38BD     		pop	{r3, r4, r5, pc}
 772              	.L62:
 773              		.align	2
 774              	.L61:
 775 00b8 E8460040 		.word	1073759976
 776 00bc 00000000 		.word	.LANCHOR0
 777 00c0 34000048 		.word	1207959604
 778 00c4 83580040 		.word	1073764483
 779 00c8 A0430040 		.word	1073759136
 780 00cc 02510040 		.word	1073762562
 781 00d0 64000048 		.word	1207959652
 782 00d4 12510040 		.word	1073762578
 783 00d8 6C000048 		.word	1207959660
 784 00dc 22430040 		.word	1073759010
ARM GAS  C:\Users\Soren\AppData\Local\Temp\ccEUhYBU.s 			page 25


 785 00e0 00480040 		.word	1073760256
 786 00e4 04000840 		.word	1074266116
 787 00e8 B0430040 		.word	1073759152
 788              		.cfi_endproc
 789              	.LFE12:
 790              		.size	cyfitter_cfg, .-cyfitter_cfg
 791              		.global	AMux_2__maskTable
 792              		.global	AMux_2__addrTable
 793              		.global	AMux_1__maskTable
 794              		.global	AMux_1__addrTable
 795              		.section	.rodata
 796              		.align	2
 797              		.set	.LANCHOR0,. + 0
 798              		.type	AMux_1__addrTable, %object
 799              		.size	AMux_1__addrTable, 24
 800              	AMux_1__addrTable:
 801 0000 D45A0040 		.word	1073765076
 802 0004 24430040 		.word	1073759012
 803 0008 0D510040 		.word	1073762573
 804 000c 005B0040 		.word	1073765120
 805 0010 0D510040 		.word	1073762573
 806 0014 24430040 		.word	1073759012
 807              		.type	AMux_1__maskTable, %object
 808              		.size	AMux_1__maskTable, 6
 809              	AMux_1__maskTable:
 810 0018 20       		.byte	32
 811 0019 00       		.byte	0
 812 001a 40       		.byte	64
 813 001b 40       		.byte	64
 814 001c 20       		.byte	32
 815 001d 00       		.byte	0
 816 001e 0000     		.space	2
 817              		.type	AMux_2__addrTable, %object
 818              		.size	AMux_2__addrTable, 16
 819              	AMux_2__addrTable:
 820 0020 0D510040 		.word	1073762573
 821 0024 24430040 		.word	1073759012
 822 0028 455B0040 		.word	1073765189
 823 002c 445B0040 		.word	1073765188
 824              		.type	AMux_2__maskTable, %object
 825              		.size	AMux_2__maskTable, 4
 826              	AMux_2__maskTable:
 827 0030 80       		.byte	-128
 828 0031 00       		.byte	0
 829 0032 04       		.byte	4
 830 0033 04       		.byte	4
 831              		.type	cfg_memset_list.4908, %object
 832              		.size	cfg_memset_list.4908, 48
 833              	cfg_memset_list.4908:
 834 0034 20510040 		.word	1073762592
 835 0038 5000     		.short	80
 836 003a C0510040 		.4byte	1073762752
 837 003e 1000     		.short	16
 838 0040 F0510040 		.word	1073762800
 839 0044 1000     		.short	16
 840 0046 00000140 		.4byte	1073807360
 841 004a 0010     		.short	4096
ARM GAS  C:\Users\Soren\AppData\Local\Temp\ccEUhYBU.s 			page 26


 842 004c 00140140 		.word	1073812480
 843 0050 0008     		.short	2048
 844 0052 00400140 		.4byte	1073823744
 845 0056 000A     		.short	2560
 846 0058 004C0140 		.word	1073826816
 847 005c 0002     		.short	512
 848 005e 00500140 		.4byte	1073827840
 849 0062 2000     		.short	32
 850              		.text
 851              	.Letext0:
 852              		.file 2 "c:\\program files (x86)\\cypress\\psoc creator\\4.0\\psoc creator\\import\\gnu\\arm\\4.9.
 853              		.file 3 "Generated_Source\\PSoC5\\cytypes.h"
 854              		.file 4 "Generated_Source\\PSoC5\\CyLib.h"