ARM GAS  C:\Users\Soren\AppData\Local\Temp\cc0ZKrW0.s 			page 1


   1              		.syntax unified
   2              		.cpu cortex-m3
   3              		.fpu softvfp
   4              		.eabi_attribute 20, 1
   5              		.eabi_attribute 21, 1
   6              		.eabi_attribute 23, 3
   7              		.eabi_attribute 24, 1
   8              		.eabi_attribute 25, 1
   9              		.eabi_attribute 26, 1
  10              		.eabi_attribute 30, 6
  11              		.eabi_attribute 34, 1
  12              		.eabi_attribute 18, 4
  13              		.thumb
  14              		.file	"main.c"
  15              		.text
  16              	.Ltext0:
  17              		.cfi_sections	.debug_frame
  18              		.comm	RxData,20,4
  19              		.global	i
  20              		.bss
  21              		.align	2
  22              		.type	i, %object
  23              		.size	i, 4
  24              	i:
  25 0000 00000000 		.space	4
  26              		.global	Strom
  27              		.data
  28              		.align	2
  29              		.type	Strom, %object
  30              		.size	Strom, 4
  31              	Strom:
  32 0000 28000000 		.word	40
  33              		.global	Spanding
  34              		.align	2
  35              		.type	Spanding, %object
  36              		.size	Spanding, 4
  37              	Spanding:
  38 0004 32000000 		.word	50
  39              		.global	THD
  40              		.align	2
  41              		.type	THD, %object
  42              		.size	THD, 4
  43              	THD:
  44 0008 3C000000 		.word	60
  45              		.global	strom
  46 000c 00000000 		.align	3
  47              		.type	strom, %object
  48              		.size	strom, 8
  49              	strom:
  50 0010 07EFAB72 		.word	1923870471
  51 0014 B152A240 		.word	1084379825
  52              		.global	stromInt
  53              		.bss
  54              		.align	1
  55              		.type	stromInt, %object
  56              		.size	stromInt, 2
  57              	stromInt:
ARM GAS  C:\Users\Soren\AppData\Local\Temp\cc0ZKrW0.s 			page 2


  58 0004 0000     		.space	2
  59              		.comm	lort,4,4
  60 0006 0000     		.section	.text.isr_RX,"ax",%progbits
  61              		.align	2
  62              		.global	isr_RX
  63              		.thumb
  64              		.thumb_func
  65              		.type	isr_RX, %function
  66              	isr_RX:
  67              	.LFB63:
  68              		.file 1 "main.c"
   1:main.c        **** /* ========================================
   2:main.c        ****  *
   3:main.c        ****  * Copyright YOUR COMPANY, THE YEAR
   4:main.c        ****  * All Rights Reserved
   5:main.c        ****  * UNPUBLISHED, LICENSED SOFTWARE.
   6:main.c        ****  *
   7:main.c        ****  * CONFIDENTIAL AND PROPRIETARY INFORMATION
   8:main.c        ****  * WHICH IS THE PROPERTY OF your company.
   9:main.c        ****  *
  10:main.c        ****  * ========================================
  11:main.c        **** */
  12:main.c        **** #include "project.h"
  13:main.c        **** 
  14:main.c        **** char RxData[20];
  15:main.c        **** int i = 0, Strom = 40, Spanding = 50, THD = 60;
  16:main.c        **** double strom = 2345.346578;
  17:main.c        **** 
  18:main.c        **** uint16 stromInt = 0;
  19:main.c        **** 
  20:main.c        **** int lort;
  21:main.c        **** 
  22:main.c        **** CY_ISR(isr_RX)
  23:main.c        **** {
  69              		.loc 1 23 0
  70              		.cfi_startproc
  71              		@ args = 0, pretend = 0, frame = 0
  72              		@ frame_needed = 1, uses_anonymous_args = 0
  73 0000 80B5     		push	{r7, lr}
  74              		.cfi_def_cfa_offset 8
  75              		.cfi_offset 7, -8
  76              		.cfi_offset 14, -4
  77 0002 00AF     		add	r7, sp, #0
  78              		.cfi_def_cfa_register 7
  24:main.c        ****     
  25:main.c        **** //    UART_1_WriteTxData(Rxcmd);
  26:main.c        ****     if(UART_1_ReadRxData() == 'A')
  79              		.loc 1 26 0
  80 0004 FFF7FEFF 		bl	UART_1_ReadRxData
  81 0008 0346     		mov	r3, r0
  82 000a 412B     		cmp	r3, #65
  83 000c 05D1     		bne	.L2
  27:main.c        ****     {
  28:main.c        ****         UART_1_WriteTxData(Strom);
  84              		.loc 1 28 0
  85 000e 0E4B     		ldr	r3, .L5
  86 0010 1B68     		ldr	r3, [r3]
ARM GAS  C:\Users\Soren\AppData\Local\Temp\cc0ZKrW0.s 			page 3


  87 0012 DBB2     		uxtb	r3, r3
  88 0014 1846     		mov	r0, r3
  89 0016 FFF7FEFF 		bl	UART_1_WriteTxData
  90              	.L2:
  29:main.c        ****     }
  30:main.c        ****     if(UART_1_ReadRxData() == 'B')
  91              		.loc 1 30 0
  92 001a FFF7FEFF 		bl	UART_1_ReadRxData
  93 001e 0346     		mov	r3, r0
  94 0020 422B     		cmp	r3, #66
  95 0022 05D1     		bne	.L3
  31:main.c        ****     {   
  32:main.c        ****         UART_1_WriteTxData(Spanding);
  96              		.loc 1 32 0
  97 0024 094B     		ldr	r3, .L5+4
  98 0026 1B68     		ldr	r3, [r3]
  99 0028 DBB2     		uxtb	r3, r3
 100 002a 1846     		mov	r0, r3
 101 002c FFF7FEFF 		bl	UART_1_WriteTxData
 102              	.L3:
  33:main.c        ****     }
  34:main.c        ****         if(UART_1_ReadRxData() == 'C')
 103              		.loc 1 34 0
 104 0030 FFF7FEFF 		bl	UART_1_ReadRxData
 105 0034 0346     		mov	r3, r0
 106 0036 432B     		cmp	r3, #67
 107 0038 05D1     		bne	.L1
  35:main.c        ****     {   
  36:main.c        ****         UART_1_WriteTxData(THD);
 108              		.loc 1 36 0
 109 003a 054B     		ldr	r3, .L5+8
 110 003c 1B68     		ldr	r3, [r3]
 111 003e DBB2     		uxtb	r3, r3
 112 0040 1846     		mov	r0, r3
 113 0042 FFF7FEFF 		bl	UART_1_WriteTxData
 114              	.L1:
  37:main.c        ****     }
  38:main.c        ****     
  39:main.c        **** }
 115              		.loc 1 39 0
 116 0046 80BD     		pop	{r7, pc}
 117              	.L6:
 118              		.align	2
 119              	.L5:
 120 0048 00000000 		.word	Strom
 121 004c 00000000 		.word	Spanding
 122 0050 00000000 		.word	THD
 123              		.cfi_endproc
 124              	.LFE63:
 125              		.size	isr_RX, .-isr_RX
 126              		.global	__aeabi_d2uiz
 127              		.global	__aeabi_i2d
 128              		.global	__aeabi_dadd
 129              		.global	__aeabi_d2iz
 130              		.section	.text.main,"ax",%progbits
 131              		.align	2
 132              		.global	main
ARM GAS  C:\Users\Soren\AppData\Local\Temp\cc0ZKrW0.s 			page 4


 133              		.thumb
 134              		.thumb_func
 135              		.type	main, %function
 136              	main:
 137              	.LFB64:
  40:main.c        **** 
  41:main.c        **** 
  42:main.c        **** int main(void)
  43:main.c        **** {
 138              		.loc 1 43 0
 139              		.cfi_startproc
 140              		@ args = 0, pretend = 0, frame = 8
 141              		@ frame_needed = 1, uses_anonymous_args = 0
 142 0000 80B5     		push	{r7, lr}
 143              		.cfi_def_cfa_offset 8
 144              		.cfi_offset 7, -8
 145              		.cfi_offset 14, -4
 146 0002 82B0     		sub	sp, sp, #8
 147              		.cfi_def_cfa_offset 16
 148 0004 00AF     		add	r7, sp, #0
 149              		.cfi_def_cfa_register 7
  44:main.c        ****     
  45:main.c        ****     CyGlobalIntEnable; /* Enable global interrupts. */
 150              		.loc 1 45 0
 151              	@ 45 "main.c" 1
 152 0006 62B6     		CPSIE   i
 153              	@ 0 "" 2
  46:main.c        ****     
  47:main.c        ****     isr_RX_StartEx(isr_RX);
 154              		.loc 1 47 0
 155              		.thumb
 156 0008 1948     		ldr	r0, .L9
 157 000a FFF7FEFF 		bl	isr_RX_StartEx
  48:main.c        ****     UART_1_Start();
 158              		.loc 1 48 0
 159 000e FFF7FEFF 		bl	UART_1_Start
  49:main.c        ****     
  50:main.c        ****     /* Place your initialization/startup code here (e.g. MyInst_Start()) */
  51:main.c        **** 
  52:main.c        ****     stromInt = strom;
 160              		.loc 1 52 0
 161 0012 184B     		ldr	r3, .L9+4
 162 0014 D3E90023 		ldrd	r2, [r3]
 163 0018 1046     		mov	r0, r2
 164 001a 1946     		mov	r1, r3
 165 001c FFF7FEFF 		bl	__aeabi_d2uiz
 166 0020 0346     		mov	r3, r0
 167 0022 9AB2     		uxth	r2, r3
 168 0024 144B     		ldr	r3, .L9+8
 169 0026 1A80     		strh	r2, [r3]	@ movhi
  53:main.c        ****     
  54:main.c        ****     uint8 highNumber = stromInt >> 8;
 170              		.loc 1 54 0
 171 0028 134B     		ldr	r3, .L9+8
 172 002a 1B88     		ldrh	r3, [r3]
 173 002c 1B0A     		lsrs	r3, r3, #8
 174 002e 9BB2     		uxth	r3, r3
ARM GAS  C:\Users\Soren\AppData\Local\Temp\cc0ZKrW0.s 			page 5


 175 0030 FB71     		strb	r3, [r7, #7]
  55:main.c        ****     uint8 lowNumber = stromInt & 0x00FF;
 176              		.loc 1 55 0
 177 0032 114B     		ldr	r3, .L9+8
 178 0034 1B88     		ldrh	r3, [r3]
 179 0036 BB71     		strb	r3, [r7, #6]
  56:main.c        ****     
  57:main.c        ****     uint16 newNumber = (highNumber << 8 ) + lowNumber;
 180              		.loc 1 57 0
 181 0038 FB79     		ldrb	r3, [r7, #7]	@ zero_extendqisi2
 182 003a 9BB2     		uxth	r3, r3
 183 003c 1B02     		lsls	r3, r3, #8
 184 003e 9AB2     		uxth	r2, r3
 185 0040 BB79     		ldrb	r3, [r7, #6]	@ zero_extendqisi2
 186 0042 9BB2     		uxth	r3, r3
 187 0044 1344     		add	r3, r3, r2
 188 0046 BB80     		strh	r3, [r7, #4]	@ movhi
  58:main.c        ****     
  59:main.c        ****     lort = strom + stromInt;
 189              		.loc 1 59 0
 190 0048 0B4B     		ldr	r3, .L9+8
 191 004a 1B88     		ldrh	r3, [r3]
 192 004c 1846     		mov	r0, r3
 193 004e FFF7FEFF 		bl	__aeabi_i2d
 194 0052 084B     		ldr	r3, .L9+4
 195 0054 D3E90023 		ldrd	r2, [r3]
 196 0058 FFF7FEFF 		bl	__aeabi_dadd
 197 005c 0246     		mov	r2, r0
 198 005e 0B46     		mov	r3, r1
 199 0060 1046     		mov	r0, r2
 200 0062 1946     		mov	r1, r3
 201 0064 FFF7FEFF 		bl	__aeabi_d2iz
 202 0068 0246     		mov	r2, r0
 203 006a 044B     		ldr	r3, .L9+12
 204 006c 1A60     		str	r2, [r3]
 205              	.L8:
  60:main.c        ****     for(;;)
  61:main.c        ****     {
  62:main.c        **** 
  63:main.c        ****         
  64:main.c        ****         
  65:main.c        ****     }
 206              		.loc 1 65 0 discriminator 1
 207 006e FEE7     		b	.L8
 208              	.L10:
 209              		.align	2
 210              	.L9:
 211 0070 00000000 		.word	isr_RX
 212 0074 00000000 		.word	strom
 213 0078 00000000 		.word	stromInt
 214 007c 00000000 		.word	lort
 215              		.cfi_endproc
 216              	.LFE64:
 217              		.size	main, .-main
 218              		.text
 219              	.Letext0:
 220              		.file 2 "c:\\program files (x86)\\cypress\\psoc creator\\4.0\\psoc creator\\import\\gnu\\arm\\4.9.
ARM GAS  C:\Users\Soren\AppData\Local\Temp\cc0ZKrW0.s 			page 6


 221              		.file 3 "c:\\program files (x86)\\cypress\\psoc creator\\4.0\\psoc creator\\import\\gnu\\arm\\4.9.
 222              		.file 4 "Generated_Source\\PSoC5/cytypes.h"
 223              		.file 5 "Generated_Source\\PSoC5/core_cm3.h"