ARM GAS  C:\Users\Soren\AppData\Local\Temp\ccMiQtne.s 			page 1


   1              		.syntax unified
   2              		.cpu cortex-m3
   3              		.fpu softvfp
   4              		.eabi_attribute 20, 1
   5              		.eabi_attribute 21, 1
   6              		.eabi_attribute 23, 3
   7              		.eabi_attribute 24, 1
   8              		.eabi_attribute 25, 1
   9              		.eabi_attribute 26, 1
  10              		.eabi_attribute 30, 6
  11              		.eabi_attribute 34, 1
  12              		.eabi_attribute 18, 4
  13              		.thumb
  14              		.file	"main.c"
  15              		.text
  16              	.Ltext0:
  17              		.cfi_sections	.debug_frame
  18              		.global	Abs_volt
  19              		.bss
  20              		.align	3
  21              		.type	Abs_volt, %object
  22              		.size	Abs_volt, 512
  23              	Abs_volt:
  24 0000 00000000 		.space	512
  24      00000000 
  24      00000000 
  24      00000000 
  24      00000000 
  25              		.global	Re_volt
  26              		.align	3
  27              		.type	Re_volt, %object
  28              		.size	Re_volt, 512
  29              	Re_volt:
  30 0200 00000000 		.space	512
  30      00000000 
  30      00000000 
  30      00000000 
  30      00000000 
  31              		.global	Im_volt
  32              		.align	3
  33              		.type	Im_volt, %object
  34              		.size	Im_volt, 512
  35              	Im_volt:
  36 0400 00000000 		.space	512
  36      00000000 
  36      00000000 
  36      00000000 
  36      00000000 
  37              		.global	Abs_Ampere
  38              		.align	3
  39              		.type	Abs_Ampere, %object
  40              		.size	Abs_Ampere, 512
  41              	Abs_Ampere:
  42 0600 00000000 		.space	512
  42      00000000 
  42      00000000 
  42      00000000 
ARM GAS  C:\Users\Soren\AppData\Local\Temp\ccMiQtne.s 			page 2


  42      00000000 
  43              		.global	Re_Ampere
  44              		.align	3
  45              		.type	Re_Ampere, %object
  46              		.size	Re_Ampere, 512
  47              	Re_Ampere:
  48 0800 00000000 		.space	512
  48      00000000 
  48      00000000 
  48      00000000 
  48      00000000 
  49              		.global	Im_Ampere
  50              		.align	3
  51              		.type	Im_Ampere, %object
  52              		.size	Im_Ampere, 512
  53              	Im_Ampere:
  54 0a00 00000000 		.space	512
  54      00000000 
  54      00000000 
  54      00000000 
  54      00000000 
  55              		.global	__aeabi_dmul
  56              		.global	__aeabi_dsub
  57              		.global	__aeabi_dadd
  58              		.global	__aeabi_ddiv
  59              		.section	.text.FFT,"ax",%progbits
  60              		.align	2
  61              		.global	FFT
  62              		.thumb
  63              		.thumb_func
  64              		.type	FFT, %function
  65              	FFT:
  66              	.LFB63:
  67              		.file 1 "fft.h"
   1:fft.h         **** #include "math.h"				 //mathematical library
   2:fft.h         **** 
   3:fft.h         **** // FFT parameters
   4:fft.h         **** #define N_points 64              //number of points				
   5:fft.h         **** #define exponent log(64)/log(2)  //log2(N_points); for N_points=64 -> exponent=6
   6:fft.h         **** #define pi 3.14159265359
   7:fft.h         **** 
   8:fft.h         **** 
   9:fft.h         **** 
  10:fft.h         **** // FFT variables
  11:fft.h         **** double Abs_volt[N_points]={0};        //arrays
  12:fft.h         **** double Re_volt[N_points]={0};
  13:fft.h         **** double Im_volt[N_points]={0};
  14:fft.h         **** 
  15:fft.h         **** double Abs_Ampere[N_points]={0};        //arrays
  16:fft.h         **** double Re_Ampere[N_points]={0};
  17:fft.h         **** double Im_Ampere[N_points]={0};
  18:fft.h         **** 
  19:fft.h         **** 
  20:fft.h         **** // FFT function
  21:fft.h         **** void FFT(int dir,long m,double *x,double *y, double *u)
  22:fft.h         **** {
  68              		.loc 1 22 0
ARM GAS  C:\Users\Soren\AppData\Local\Temp\ccMiQtne.s 			page 3


  69              		.cfi_startproc
  70              		@ args = 4, pretend = 0, frame = 128
  71              		@ frame_needed = 1, uses_anonymous_args = 0
  72 0000 2DE9B043 		push	{r4, r5, r7, r8, r9, lr}
  73              		.cfi_def_cfa_offset 24
  74              		.cfi_offset 4, -24
  75              		.cfi_offset 5, -20
  76              		.cfi_offset 7, -16
  77              		.cfi_offset 8, -12
  78              		.cfi_offset 9, -8
  79              		.cfi_offset 14, -4
  80 0004 A0B0     		sub	sp, sp, #128
  81              		.cfi_def_cfa_offset 152
  82 0006 00AF     		add	r7, sp, #0
  83              		.cfi_def_cfa_register 7
  84 0008 F860     		str	r0, [r7, #12]
  85 000a B960     		str	r1, [r7, #8]
  86 000c 7A60     		str	r2, [r7, #4]
  87 000e 3B60     		str	r3, [r7]
  23:fft.h         ****    // dir:  forward (=1) o inverse (!=1) transform; 
  24:fft.h         ****    // m exponent;
  25:fft.h         ****    
  26:fft.h         ****    long n,i,i1,j,k,i2,l,l1,l2;
  27:fft.h         ****    double c1,c2,tx,ty,t1,t2,u1,u2,z;
  28:fft.h         **** 
  29:fft.h         ****    /* Calculate the number of points */
  30:fft.h         ****    n = 1;
  88              		.loc 1 30 0
  89 0010 0123     		movs	r3, #1
  90 0012 FB67     		str	r3, [r7, #124]
  31:fft.h         ****    for (i=0;i<m;i++) 
  91              		.loc 1 31 0
  92 0014 0023     		movs	r3, #0
  93 0016 BB67     		str	r3, [r7, #120]
  94 0018 05E0     		b	.L2
  95              	.L3:
  32:fft.h         ****       n *= 2;
  96              		.loc 1 32 0 discriminator 3
  97 001a FB6F     		ldr	r3, [r7, #124]
  98 001c 5B00     		lsls	r3, r3, #1
  99 001e FB67     		str	r3, [r7, #124]
  31:fft.h         ****    for (i=0;i<m;i++) 
 100              		.loc 1 31 0 discriminator 3
 101 0020 BB6F     		ldr	r3, [r7, #120]
 102 0022 0133     		adds	r3, r3, #1
 103 0024 BB67     		str	r3, [r7, #120]
 104              	.L2:
  31:fft.h         ****    for (i=0;i<m;i++) 
 105              		.loc 1 31 0 is_stmt 0 discriminator 1
 106 0026 BA6F     		ldr	r2, [r7, #120]
 107 0028 BB68     		ldr	r3, [r7, #8]
 108 002a 9A42     		cmp	r2, r3
 109 002c F5DB     		blt	.L3
  33:fft.h         **** 
  34:fft.h         ****    /* Do the bit reversal */
  35:fft.h         ****    i2 = n >> 1;
 110              		.loc 1 35 0 is_stmt 1
ARM GAS  C:\Users\Soren\AppData\Local\Temp\ccMiQtne.s 			page 4


 111 002e FB6F     		ldr	r3, [r7, #124]
 112 0030 5B10     		asrs	r3, r3, #1
 113 0032 7B64     		str	r3, [r7, #68]
  36:fft.h         ****    j = 0;
 114              		.loc 1 36 0
 115 0034 0023     		movs	r3, #0
 116 0036 7B67     		str	r3, [r7, #116]
  37:fft.h         ****    for (i=0;i<n-1;i++) {
 117              		.loc 1 37 0
 118 0038 0023     		movs	r3, #0
 119 003a BB67     		str	r3, [r7, #120]
 120 003c 50E0     		b	.L4
 121              	.L8:
  38:fft.h         ****       if (i < j) {
 122              		.loc 1 38 0
 123 003e BA6F     		ldr	r2, [r7, #120]
 124 0040 7B6F     		ldr	r3, [r7, #116]
 125 0042 9A42     		cmp	r2, r3
 126 0044 37DA     		bge	.L5
  39:fft.h         ****          tx = x[i];
 127              		.loc 1 39 0
 128 0046 BB6F     		ldr	r3, [r7, #120]
 129 0048 DB00     		lsls	r3, r3, #3
 130 004a 7A68     		ldr	r2, [r7, #4]
 131 004c 1344     		add	r3, r3, r2
 132 004e D3E90023 		ldrd	r2, [r3]
 133 0052 C7E90E23 		strd	r2, [r7, #56]
  40:fft.h         ****          ty = y[i];
 134              		.loc 1 40 0
 135 0056 BB6F     		ldr	r3, [r7, #120]
 136 0058 DB00     		lsls	r3, r3, #3
 137 005a 3A68     		ldr	r2, [r7]
 138 005c 1344     		add	r3, r3, r2
 139 005e D3E90023 		ldrd	r2, [r3]
 140 0062 C7E90C23 		strd	r2, [r7, #48]
  41:fft.h         ****          x[i] = x[j];
 141              		.loc 1 41 0
 142 0066 BB6F     		ldr	r3, [r7, #120]
 143 0068 DB00     		lsls	r3, r3, #3
 144 006a 7A68     		ldr	r2, [r7, #4]
 145 006c D118     		adds	r1, r2, r3
 146 006e 7B6F     		ldr	r3, [r7, #116]
 147 0070 DB00     		lsls	r3, r3, #3
 148 0072 7A68     		ldr	r2, [r7, #4]
 149 0074 1344     		add	r3, r3, r2
 150 0076 D3E90023 		ldrd	r2, [r3]
 151 007a C1E90023 		strd	r2, [r1]
  42:fft.h         ****          y[i] = y[j];
 152              		.loc 1 42 0
 153 007e BB6F     		ldr	r3, [r7, #120]
 154 0080 DB00     		lsls	r3, r3, #3
 155 0082 3A68     		ldr	r2, [r7]
 156 0084 D118     		adds	r1, r2, r3
 157 0086 7B6F     		ldr	r3, [r7, #116]
 158 0088 DB00     		lsls	r3, r3, #3
 159 008a 3A68     		ldr	r2, [r7]
 160 008c 1344     		add	r3, r3, r2
ARM GAS  C:\Users\Soren\AppData\Local\Temp\ccMiQtne.s 			page 5


 161 008e D3E90023 		ldrd	r2, [r3]
 162 0092 C1E90023 		strd	r2, [r1]
  43:fft.h         ****          x[j] = tx;
 163              		.loc 1 43 0
 164 0096 7B6F     		ldr	r3, [r7, #116]
 165 0098 DB00     		lsls	r3, r3, #3
 166 009a 7A68     		ldr	r2, [r7, #4]
 167 009c D118     		adds	r1, r2, r3
 168 009e D7E90E23 		ldrd	r2, [r7, #56]
 169 00a2 C1E90023 		strd	r2, [r1]
  44:fft.h         ****          y[j] = ty;
 170              		.loc 1 44 0
 171 00a6 7B6F     		ldr	r3, [r7, #116]
 172 00a8 DB00     		lsls	r3, r3, #3
 173 00aa 3A68     		ldr	r2, [r7]
 174 00ac D118     		adds	r1, r2, r3
 175 00ae D7E90C23 		ldrd	r2, [r7, #48]
 176 00b2 C1E90023 		strd	r2, [r1]
 177              	.L5:
  45:fft.h         ****       }
  46:fft.h         ****       k = i2;
 178              		.loc 1 46 0
 179 00b6 7B6C     		ldr	r3, [r7, #68]
 180 00b8 3B67     		str	r3, [r7, #112]
  47:fft.h         ****       while (k <= j) {
 181              		.loc 1 47 0
 182 00ba 06E0     		b	.L6
 183              	.L7:
  48:fft.h         ****          j -= k;
 184              		.loc 1 48 0
 185 00bc 7A6F     		ldr	r2, [r7, #116]
 186 00be 3B6F     		ldr	r3, [r7, #112]
 187 00c0 D31A     		subs	r3, r2, r3
 188 00c2 7B67     		str	r3, [r7, #116]
  49:fft.h         ****          k >>= 1;
 189              		.loc 1 49 0
 190 00c4 3B6F     		ldr	r3, [r7, #112]
 191 00c6 5B10     		asrs	r3, r3, #1
 192 00c8 3B67     		str	r3, [r7, #112]
 193              	.L6:
  47:fft.h         ****       while (k <= j) {
 194              		.loc 1 47 0
 195 00ca 3A6F     		ldr	r2, [r7, #112]
 196 00cc 7B6F     		ldr	r3, [r7, #116]
 197 00ce 9A42     		cmp	r2, r3
 198 00d0 F4DD     		ble	.L7
  50:fft.h         ****       }
  51:fft.h         ****       j += k;
 199              		.loc 1 51 0 discriminator 2
 200 00d2 7A6F     		ldr	r2, [r7, #116]
 201 00d4 3B6F     		ldr	r3, [r7, #112]
 202 00d6 1344     		add	r3, r3, r2
 203 00d8 7B67     		str	r3, [r7, #116]
  37:fft.h         ****       if (i < j) {
 204              		.loc 1 37 0 discriminator 2
 205 00da BB6F     		ldr	r3, [r7, #120]
 206 00dc 0133     		adds	r3, r3, #1
ARM GAS  C:\Users\Soren\AppData\Local\Temp\ccMiQtne.s 			page 6


 207 00de BB67     		str	r3, [r7, #120]
 208              	.L4:
  37:fft.h         ****       if (i < j) {
 209              		.loc 1 37 0 is_stmt 0 discriminator 1
 210 00e0 FB6F     		ldr	r3, [r7, #124]
 211 00e2 5A1E     		subs	r2, r3, #1
 212 00e4 BB6F     		ldr	r3, [r7, #120]
 213 00e6 9A42     		cmp	r2, r3
 214 00e8 A9DC     		bgt	.L8
  52:fft.h         ****    }
  53:fft.h         **** 
  54:fft.h         ****    /* Compute the FFT */
  55:fft.h         ****    c1 = -1.0; 
 215              		.loc 1 55 0 is_stmt 1
 216 00ea 4FF00002 		mov	r2, #0
 217 00ee A94B     		ldr	r3, .L18
 218 00f0 C7E91823 		strd	r2, [r7, #96]
  56:fft.h         ****    c2 = 0.0;
 219              		.loc 1 56 0
 220 00f4 4FF00002 		mov	r2, #0
 221 00f8 4FF00003 		mov	r3, #0
 222 00fc C7E91623 		strd	r2, [r7, #88]
  57:fft.h         ****    l2 = 1;
 223              		.loc 1 57 0
 224 0100 0123     		movs	r3, #1
 225 0102 BB66     		str	r3, [r7, #104]
  58:fft.h         ****    for (l=0;l<m;l++) {
 226              		.loc 1 58 0
 227 0104 0023     		movs	r3, #0
 228 0106 FB66     		str	r3, [r7, #108]
 229 0108 3CE1     		b	.L9
 230              	.L15:
  59:fft.h         ****       l1 = l2;
 231              		.loc 1 59 0
 232 010a BB6E     		ldr	r3, [r7, #104]
 233 010c FB62     		str	r3, [r7, #44]
  60:fft.h         ****       l2 <<= 1;
 234              		.loc 1 60 0
 235 010e BB6E     		ldr	r3, [r7, #104]
 236 0110 5B00     		lsls	r3, r3, #1
 237 0112 BB66     		str	r3, [r7, #104]
  61:fft.h         ****       u1 = 1.0; 
 238              		.loc 1 61 0
 239 0114 4FF00002 		mov	r2, #0
 240 0118 9F4B     		ldr	r3, .L18+4
 241 011a C7E91423 		strd	r2, [r7, #80]
  62:fft.h         ****       u2 = 0.0;
 242              		.loc 1 62 0
 243 011e 4FF00002 		mov	r2, #0
 244 0122 4FF00003 		mov	r3, #0
 245 0126 C7E91223 		strd	r2, [r7, #72]
  63:fft.h         ****       for (j=0;j<l1;j++) {
 246              		.loc 1 63 0
 247 012a 0023     		movs	r3, #0
 248 012c 7B67     		str	r3, [r7, #116]
 249 012e E6E0     		b	.L10
 250              	.L13:
ARM GAS  C:\Users\Soren\AppData\Local\Temp\ccMiQtne.s 			page 7


  64:fft.h         ****          for (i=j;i<n;i+=l2) {
 251              		.loc 1 64 0
 252 0130 7B6F     		ldr	r3, [r7, #116]
 253 0132 BB67     		str	r3, [r7, #120]
 254 0134 A3E0     		b	.L11
 255              	.L12:
  65:fft.h         ****             i1 = i + l1;
 256              		.loc 1 65 0 discriminator 3
 257 0136 BA6F     		ldr	r2, [r7, #120]
 258 0138 FB6A     		ldr	r3, [r7, #44]
 259 013a 1344     		add	r3, r3, r2
 260 013c BB62     		str	r3, [r7, #40]
  66:fft.h         ****             t1 = u1 * x[i1] - u2 * y[i1];
 261              		.loc 1 66 0 discriminator 3
 262 013e BB6A     		ldr	r3, [r7, #40]
 263 0140 DB00     		lsls	r3, r3, #3
 264 0142 7A68     		ldr	r2, [r7, #4]
 265 0144 1344     		add	r3, r3, r2
 266 0146 D3E90023 		ldrd	r2, [r3]
 267 014a 1046     		mov	r0, r2
 268 014c 1946     		mov	r1, r3
 269 014e D7E91423 		ldrd	r2, [r7, #80]
 270 0152 FFF7FEFF 		bl	__aeabi_dmul
 271 0156 0246     		mov	r2, r0
 272 0158 0B46     		mov	r3, r1
 273 015a 1446     		mov	r4, r2
 274 015c 1D46     		mov	r5, r3
 275 015e BB6A     		ldr	r3, [r7, #40]
 276 0160 DB00     		lsls	r3, r3, #3
 277 0162 3A68     		ldr	r2, [r7]
 278 0164 1344     		add	r3, r3, r2
 279 0166 D3E90023 		ldrd	r2, [r3]
 280 016a 1046     		mov	r0, r2
 281 016c 1946     		mov	r1, r3
 282 016e D7E91223 		ldrd	r2, [r7, #72]
 283 0172 FFF7FEFF 		bl	__aeabi_dmul
 284 0176 0246     		mov	r2, r0
 285 0178 0B46     		mov	r3, r1
 286 017a 2046     		mov	r0, r4
 287 017c 2946     		mov	r1, r5
 288 017e FFF7FEFF 		bl	__aeabi_dsub
 289 0182 0246     		mov	r2, r0
 290 0184 0B46     		mov	r3, r1
 291 0186 C7E90823 		strd	r2, [r7, #32]
  67:fft.h         ****             t2 = u1 * y[i1] + u2 * x[i1];
 292              		.loc 1 67 0 discriminator 3
 293 018a BB6A     		ldr	r3, [r7, #40]
 294 018c DB00     		lsls	r3, r3, #3
 295 018e 3A68     		ldr	r2, [r7]
 296 0190 1344     		add	r3, r3, r2
 297 0192 D3E90023 		ldrd	r2, [r3]
 298 0196 1046     		mov	r0, r2
 299 0198 1946     		mov	r1, r3
 300 019a D7E91423 		ldrd	r2, [r7, #80]
 301 019e FFF7FEFF 		bl	__aeabi_dmul
 302 01a2 0246     		mov	r2, r0
 303 01a4 0B46     		mov	r3, r1
ARM GAS  C:\Users\Soren\AppData\Local\Temp\ccMiQtne.s 			page 8


 304 01a6 1446     		mov	r4, r2
 305 01a8 1D46     		mov	r5, r3
 306 01aa BB6A     		ldr	r3, [r7, #40]
 307 01ac DB00     		lsls	r3, r3, #3
 308 01ae 7A68     		ldr	r2, [r7, #4]
 309 01b0 1344     		add	r3, r3, r2
 310 01b2 D3E90023 		ldrd	r2, [r3]
 311 01b6 1046     		mov	r0, r2
 312 01b8 1946     		mov	r1, r3
 313 01ba D7E91223 		ldrd	r2, [r7, #72]
 314 01be FFF7FEFF 		bl	__aeabi_dmul
 315 01c2 0246     		mov	r2, r0
 316 01c4 0B46     		mov	r3, r1
 317 01c6 2046     		mov	r0, r4
 318 01c8 2946     		mov	r1, r5
 319 01ca FFF7FEFF 		bl	__aeabi_dadd
 320 01ce 0246     		mov	r2, r0
 321 01d0 0B46     		mov	r3, r1
 322 01d2 C7E90623 		strd	r2, [r7, #24]
  68:fft.h         ****             x[i1] = x[i] - t1; 
 323              		.loc 1 68 0 discriminator 3
 324 01d6 BB6A     		ldr	r3, [r7, #40]
 325 01d8 DB00     		lsls	r3, r3, #3
 326 01da 7A68     		ldr	r2, [r7, #4]
 327 01dc D418     		adds	r4, r2, r3
 328 01de BB6F     		ldr	r3, [r7, #120]
 329 01e0 DB00     		lsls	r3, r3, #3
 330 01e2 7A68     		ldr	r2, [r7, #4]
 331 01e4 1344     		add	r3, r3, r2
 332 01e6 D3E90023 		ldrd	r2, [r3]
 333 01ea 1046     		mov	r0, r2
 334 01ec 1946     		mov	r1, r3
 335 01ee D7E90823 		ldrd	r2, [r7, #32]
 336 01f2 FFF7FEFF 		bl	__aeabi_dsub
 337 01f6 0246     		mov	r2, r0
 338 01f8 0B46     		mov	r3, r1
 339 01fa C4E90023 		strd	r2, [r4]
  69:fft.h         ****             y[i1] = y[i] - t2;
 340              		.loc 1 69 0 discriminator 3
 341 01fe BB6A     		ldr	r3, [r7, #40]
 342 0200 DB00     		lsls	r3, r3, #3
 343 0202 3A68     		ldr	r2, [r7]
 344 0204 D418     		adds	r4, r2, r3
 345 0206 BB6F     		ldr	r3, [r7, #120]
 346 0208 DB00     		lsls	r3, r3, #3
 347 020a 3A68     		ldr	r2, [r7]
 348 020c 1344     		add	r3, r3, r2
 349 020e D3E90023 		ldrd	r2, [r3]
 350 0212 1046     		mov	r0, r2
 351 0214 1946     		mov	r1, r3
 352 0216 D7E90623 		ldrd	r2, [r7, #24]
 353 021a FFF7FEFF 		bl	__aeabi_dsub
 354 021e 0246     		mov	r2, r0
 355 0220 0B46     		mov	r3, r1
 356 0222 C4E90023 		strd	r2, [r4]
  70:fft.h         ****             x[i] += t1;
 357              		.loc 1 70 0 discriminator 3
ARM GAS  C:\Users\Soren\AppData\Local\Temp\ccMiQtne.s 			page 9


 358 0226 BB6F     		ldr	r3, [r7, #120]
 359 0228 DB00     		lsls	r3, r3, #3
 360 022a 7A68     		ldr	r2, [r7, #4]
 361 022c D418     		adds	r4, r2, r3
 362 022e BB6F     		ldr	r3, [r7, #120]
 363 0230 DB00     		lsls	r3, r3, #3
 364 0232 7A68     		ldr	r2, [r7, #4]
 365 0234 1344     		add	r3, r3, r2
 366 0236 D3E90023 		ldrd	r2, [r3]
 367 023a 1046     		mov	r0, r2
 368 023c 1946     		mov	r1, r3
 369 023e D7E90823 		ldrd	r2, [r7, #32]
 370 0242 FFF7FEFF 		bl	__aeabi_dadd
 371 0246 0246     		mov	r2, r0
 372 0248 0B46     		mov	r3, r1
 373 024a C4E90023 		strd	r2, [r4]
  71:fft.h         ****             y[i] += t2;
 374              		.loc 1 71 0 discriminator 3
 375 024e BB6F     		ldr	r3, [r7, #120]
 376 0250 DB00     		lsls	r3, r3, #3
 377 0252 3A68     		ldr	r2, [r7]
 378 0254 D418     		adds	r4, r2, r3
 379 0256 BB6F     		ldr	r3, [r7, #120]
 380 0258 DB00     		lsls	r3, r3, #3
 381 025a 3A68     		ldr	r2, [r7]
 382 025c 1344     		add	r3, r3, r2
 383 025e D3E90023 		ldrd	r2, [r3]
 384 0262 1046     		mov	r0, r2
 385 0264 1946     		mov	r1, r3
 386 0266 D7E90623 		ldrd	r2, [r7, #24]
 387 026a FFF7FEFF 		bl	__aeabi_dadd
 388 026e 0246     		mov	r2, r0
 389 0270 0B46     		mov	r3, r1
 390 0272 C4E90023 		strd	r2, [r4]
  64:fft.h         ****             i1 = i + l1;
 391              		.loc 1 64 0 discriminator 3
 392 0276 BA6F     		ldr	r2, [r7, #120]
 393 0278 BB6E     		ldr	r3, [r7, #104]
 394 027a 1344     		add	r3, r3, r2
 395 027c BB67     		str	r3, [r7, #120]
 396              	.L11:
  64:fft.h         ****             i1 = i + l1;
 397              		.loc 1 64 0 is_stmt 0 discriminator 1
 398 027e BA6F     		ldr	r2, [r7, #120]
 399 0280 FB6F     		ldr	r3, [r7, #124]
 400 0282 9A42     		cmp	r2, r3
 401 0284 FFF657AF 		blt	.L12
  72:fft.h         ****          }
  73:fft.h         ****          z =  u1 * c1 - u2 * c2;
 402              		.loc 1 73 0 is_stmt 1 discriminator 2
 403 0288 D7E91401 		ldrd	r0, [r7, #80]
 404 028c D7E91823 		ldrd	r2, [r7, #96]
 405 0290 FFF7FEFF 		bl	__aeabi_dmul
 406 0294 0246     		mov	r2, r0
 407 0296 0B46     		mov	r3, r1
 408 0298 1446     		mov	r4, r2
 409 029a 1D46     		mov	r5, r3
ARM GAS  C:\Users\Soren\AppData\Local\Temp\ccMiQtne.s 			page 10


 410 029c D7E91201 		ldrd	r0, [r7, #72]
 411 02a0 D7E91623 		ldrd	r2, [r7, #88]
 412 02a4 FFF7FEFF 		bl	__aeabi_dmul
 413 02a8 0246     		mov	r2, r0
 414 02aa 0B46     		mov	r3, r1
 415 02ac 2046     		mov	r0, r4
 416 02ae 2946     		mov	r1, r5
 417 02b0 FFF7FEFF 		bl	__aeabi_dsub
 418 02b4 0246     		mov	r2, r0
 419 02b6 0B46     		mov	r3, r1
 420 02b8 C7E90423 		strd	r2, [r7, #16]
  74:fft.h         ****          u2 = u1 * c2 + u2 * c1;
 421              		.loc 1 74 0 discriminator 2
 422 02bc D7E91401 		ldrd	r0, [r7, #80]
 423 02c0 D7E91623 		ldrd	r2, [r7, #88]
 424 02c4 FFF7FEFF 		bl	__aeabi_dmul
 425 02c8 0246     		mov	r2, r0
 426 02ca 0B46     		mov	r3, r1
 427 02cc 1446     		mov	r4, r2
 428 02ce 1D46     		mov	r5, r3
 429 02d0 D7E91201 		ldrd	r0, [r7, #72]
 430 02d4 D7E91823 		ldrd	r2, [r7, #96]
 431 02d8 FFF7FEFF 		bl	__aeabi_dmul
 432 02dc 0246     		mov	r2, r0
 433 02de 0B46     		mov	r3, r1
 434 02e0 2046     		mov	r0, r4
 435 02e2 2946     		mov	r1, r5
 436 02e4 FFF7FEFF 		bl	__aeabi_dadd
 437 02e8 0246     		mov	r2, r0
 438 02ea 0B46     		mov	r3, r1
 439 02ec C7E91223 		strd	r2, [r7, #72]
  75:fft.h         ****          u1 = z;
 440              		.loc 1 75 0 discriminator 2
 441 02f0 D7E90423 		ldrd	r2, [r7, #16]
 442 02f4 C7E91423 		strd	r2, [r7, #80]
  63:fft.h         ****          for (i=j;i<n;i+=l2) {
 443              		.loc 1 63 0 discriminator 2
 444 02f8 7B6F     		ldr	r3, [r7, #116]
 445 02fa 0133     		adds	r3, r3, #1
 446 02fc 7B67     		str	r3, [r7, #116]
 447              	.L10:
  63:fft.h         ****          for (i=j;i<n;i+=l2) {
 448              		.loc 1 63 0 is_stmt 0 discriminator 1
 449 02fe 7A6F     		ldr	r2, [r7, #116]
 450 0300 FB6A     		ldr	r3, [r7, #44]
 451 0302 9A42     		cmp	r2, r3
 452 0304 FFF614AF 		blt	.L13
  76:fft.h         ****       }
  77:fft.h         ****       c2 = sqrt((1.0 - c1) / 2.0);
 453              		.loc 1 77 0 is_stmt 1
 454 0308 4FF00000 		mov	r0, #0
 455 030c 2249     		ldr	r1, .L18+4
 456 030e D7E91823 		ldrd	r2, [r7, #96]
 457 0312 FFF7FEFF 		bl	__aeabi_dsub
 458 0316 0246     		mov	r2, r0
 459 0318 0B46     		mov	r3, r1
 460 031a 1046     		mov	r0, r2
ARM GAS  C:\Users\Soren\AppData\Local\Temp\ccMiQtne.s 			page 11


 461 031c 1946     		mov	r1, r3
 462 031e 4FF00002 		mov	r2, #0
 463 0322 4FF08043 		mov	r3, #1073741824
 464 0326 FFF7FEFF 		bl	__aeabi_ddiv
 465 032a 0246     		mov	r2, r0
 466 032c 0B46     		mov	r3, r1
 467 032e 1046     		mov	r0, r2
 468 0330 1946     		mov	r1, r3
 469 0332 FFF7FEFF 		bl	sqrt
 470 0336 C7E91601 		strd	r0, [r7, #88]
  78:fft.h         ****       if (dir == 1) 
 471              		.loc 1 78 0
 472 033a FB68     		ldr	r3, [r7, #12]
 473 033c 012B     		cmp	r3, #1
 474 033e 05D1     		bne	.L14
  79:fft.h         ****          c2 = -c2;
 475              		.loc 1 79 0
 476 0340 BB6D     		ldr	r3, [r7, #88]
 477 0342 BB65     		str	r3, [r7, #88]
 478 0344 FB6D     		ldr	r3, [r7, #92]
 479 0346 83F00043 		eor	r3, r3, #-2147483648
 480 034a FB65     		str	r3, [r7, #92]
 481              	.L14:
  80:fft.h         ****       c1 = sqrt((1.0 + c1) / 2.0);
 482              		.loc 1 80 0 discriminator 2
 483 034c D7E91801 		ldrd	r0, [r7, #96]
 484 0350 4FF00002 		mov	r2, #0
 485 0354 104B     		ldr	r3, .L18+4
 486 0356 FFF7FEFF 		bl	__aeabi_dadd
 487 035a 0246     		mov	r2, r0
 488 035c 0B46     		mov	r3, r1
 489 035e 1046     		mov	r0, r2
 490 0360 1946     		mov	r1, r3
 491 0362 4FF00002 		mov	r2, #0
 492 0366 4FF08043 		mov	r3, #1073741824
 493 036a FFF7FEFF 		bl	__aeabi_ddiv
 494 036e 0246     		mov	r2, r0
 495 0370 0B46     		mov	r3, r1
 496 0372 1046     		mov	r0, r2
 497 0374 1946     		mov	r1, r3
 498 0376 FFF7FEFF 		bl	sqrt
 499 037a C7E91801 		strd	r0, [r7, #96]
  58:fft.h         ****       l1 = l2;
 500              		.loc 1 58 0 discriminator 2
 501 037e FB6E     		ldr	r3, [r7, #108]
 502 0380 0133     		adds	r3, r3, #1
 503 0382 FB66     		str	r3, [r7, #108]
 504              	.L9:
  58:fft.h         ****       l1 = l2;
 505              		.loc 1 58 0 is_stmt 0 discriminator 1
 506 0384 FA6E     		ldr	r2, [r7, #108]
 507 0386 BB68     		ldr	r3, [r7, #8]
 508 0388 9A42     		cmp	r2, r3
 509 038a FFF6BEAE 		blt	.L15
  81:fft.h         ****    }
  82:fft.h         **** 
  83:fft.h         ****    /* Scaling factor for forward transform */
ARM GAS  C:\Users\Soren\AppData\Local\Temp\ccMiQtne.s 			page 12


  84:fft.h         **** //   if (dir == 1) {
  85:fft.h         **** //      for (i=0;i<n;i++) {
  86:fft.h         **** //         x[i] /= n;
  87:fft.h         **** //         y[i] /= n;
  88:fft.h         **** //      }
  89:fft.h         **** //   }
  90:fft.h         ****    
  91:fft.h         ****    for(i=0;i<N_points;i++)
 510              		.loc 1 91 0 is_stmt 1
 511 038e 0023     		movs	r3, #0
 512 0390 BB67     		str	r3, [r7, #120]
 513 0392 4AE0     		b	.L16
 514              	.L19:
 515              		.align	2
 516              	.L18:
 517 0394 0000F0BF 		.word	-1074790400
 518 0398 0000F03F 		.word	1072693248
 519              	.L17:
  92:fft.h         ****    {
  93:fft.h         ****     /* Absolute value */
  94:fft.h         ****    u[i]=2*sqrt((x[i]*x[i])+(y[i]*y[i]))/N_points;  
 520              		.loc 1 94 0 discriminator 3
 521 039c BB6F     		ldr	r3, [r7, #120]
 522 039e DB00     		lsls	r3, r3, #3
 523 03a0 D7F89820 		ldr	r2, [r7, #152]
 524 03a4 D418     		adds	r4, r2, r3
 525 03a6 BB6F     		ldr	r3, [r7, #120]
 526 03a8 DB00     		lsls	r3, r3, #3
 527 03aa 7A68     		ldr	r2, [r7, #4]
 528 03ac 1344     		add	r3, r3, r2
 529 03ae D3E90001 		ldrd	r0, [r3]
 530 03b2 BB6F     		ldr	r3, [r7, #120]
 531 03b4 DB00     		lsls	r3, r3, #3
 532 03b6 7A68     		ldr	r2, [r7, #4]
 533 03b8 1344     		add	r3, r3, r2
 534 03ba D3E90023 		ldrd	r2, [r3]
 535 03be FFF7FEFF 		bl	__aeabi_dmul
 536 03c2 0246     		mov	r2, r0
 537 03c4 0B46     		mov	r3, r1
 538 03c6 9046     		mov	r8, r2
 539 03c8 9946     		mov	r9, r3
 540 03ca BB6F     		ldr	r3, [r7, #120]
 541 03cc DB00     		lsls	r3, r3, #3
 542 03ce 3A68     		ldr	r2, [r7]
 543 03d0 1344     		add	r3, r3, r2
 544 03d2 D3E90001 		ldrd	r0, [r3]
 545 03d6 BB6F     		ldr	r3, [r7, #120]
 546 03d8 DB00     		lsls	r3, r3, #3
 547 03da 3A68     		ldr	r2, [r7]
 548 03dc 1344     		add	r3, r3, r2
 549 03de D3E90023 		ldrd	r2, [r3]
 550 03e2 FFF7FEFF 		bl	__aeabi_dmul
 551 03e6 0246     		mov	r2, r0
 552 03e8 0B46     		mov	r3, r1
 553 03ea 4046     		mov	r0, r8
 554 03ec 4946     		mov	r1, r9
 555 03ee FFF7FEFF 		bl	__aeabi_dadd
ARM GAS  C:\Users\Soren\AppData\Local\Temp\ccMiQtne.s 			page 13


 556 03f2 0246     		mov	r2, r0
 557 03f4 0B46     		mov	r3, r1
 558 03f6 1046     		mov	r0, r2
 559 03f8 1946     		mov	r1, r3
 560 03fa FFF7FEFF 		bl	sqrt
 561 03fe 0246     		mov	r2, r0
 562 0400 0B46     		mov	r3, r1
 563 0402 1046     		mov	r0, r2
 564 0404 1946     		mov	r1, r3
 565 0406 FFF7FEFF 		bl	__aeabi_dadd
 566 040a 0246     		mov	r2, r0
 567 040c 0B46     		mov	r3, r1
 568 040e 1046     		mov	r0, r2
 569 0410 1946     		mov	r1, r3
 570 0412 4FF00002 		mov	r2, #0
 571 0416 084B     		ldr	r3, .L20
 572 0418 FFF7FEFF 		bl	__aeabi_ddiv
 573 041c 0246     		mov	r2, r0
 574 041e 0B46     		mov	r3, r1
 575 0420 C4E90023 		strd	r2, [r4]
  91:fft.h         ****    {
 576              		.loc 1 91 0 discriminator 3
 577 0424 BB6F     		ldr	r3, [r7, #120]
 578 0426 0133     		adds	r3, r3, #1
 579 0428 BB67     		str	r3, [r7, #120]
 580              	.L16:
  91:fft.h         ****    {
 581              		.loc 1 91 0 is_stmt 0 discriminator 1
 582 042a BB6F     		ldr	r3, [r7, #120]
 583 042c 3F2B     		cmp	r3, #63
 584 042e B5DD     		ble	.L17
  95:fft.h         ****    }
  96:fft.h         **** }
 585              		.loc 1 96 0 is_stmt 1
 586 0430 8037     		adds	r7, r7, #128
 587              		.cfi_def_cfa_offset 24
 588 0432 BD46     		mov	sp, r7
 589              		.cfi_def_cfa_register 13
 590              		@ sp needed
 591 0434 BDE8B083 		pop	{r4, r5, r7, r8, r9, pc}
 592              	.L21:
 593              		.align	2
 594              	.L20:
 595 0438 00005040 		.word	1078984704
 596              		.cfi_endproc
 597              	.LFE63:
 598              		.size	FFT, .-FFT
 599              		.section	.text.calculate_50Hz_Amp,"ax",%progbits
 600              		.align	2
 601              		.global	calculate_50Hz_Amp
 602              		.thumb
 603              		.thumb_func
 604              		.type	calculate_50Hz_Amp, %function
 605              	calculate_50Hz_Amp:
 606              	.LFB64:
  97:fft.h         **** 
  98:fft.h         **** double calculate_50Hz_Amp(double *u)
ARM GAS  C:\Users\Soren\AppData\Local\Temp\ccMiQtne.s 			page 14


  99:fft.h         **** {
 607              		.loc 1 99 0
 608              		.cfi_startproc
 609              		@ args = 0, pretend = 0, frame = 8
 610              		@ frame_needed = 1, uses_anonymous_args = 0
 611              		@ link register save eliminated.
 612 0000 80B4     		push	{r7}
 613              		.cfi_def_cfa_offset 4
 614              		.cfi_offset 7, -4
 615 0002 83B0     		sub	sp, sp, #12
 616              		.cfi_def_cfa_offset 16
 617 0004 00AF     		add	r7, sp, #0
 618              		.cfi_def_cfa_register 7
 619 0006 7860     		str	r0, [r7, #4]
 100:fft.h         **** //    double fsample = 1067;  
 101:fft.h         **** //    double delta_f_bin = fsample/N_points;
 102:fft.h         **** //    int bin_number = frekvens/delta_f_bin;
 103:fft.h         ****     
 104:fft.h         ****     return u[1];
 620              		.loc 1 104 0
 621 0008 7B68     		ldr	r3, [r7, #4]
 622 000a D3E90223 		ldrd	r2, [r3, #8]
 105:fft.h         ****     
 106:fft.h         ****     
 107:fft.h         **** }
 623              		.loc 1 107 0
 624 000e 1046     		mov	r0, r2
 625 0010 1946     		mov	r1, r3
 626 0012 0C37     		adds	r7, r7, #12
 627              		.cfi_def_cfa_offset 4
 628 0014 BD46     		mov	sp, r7
 629              		.cfi_def_cfa_register 13
 630              		@ sp needed
 631 0016 5DF8047B 		ldr	r7, [sp], #4
 632              		.cfi_restore 7
 633              		.cfi_def_cfa_offset 0
 634 001a 7047     		bx	lr
 635              		.cfi_endproc
 636              	.LFE64:
 637              		.size	calculate_50Hz_Amp, .-calculate_50Hz_Amp
 638              		.section	.text.calculate_50Hz_RMS,"ax",%progbits
 639              		.align	2
 640              		.global	calculate_50Hz_RMS
 641              		.thumb
 642              		.thumb_func
 643              		.type	calculate_50Hz_RMS, %function
 644              	calculate_50Hz_RMS:
 645              	.LFB65:
 108:fft.h         **** 
 109:fft.h         **** double calculate_50Hz_RMS(double *u)
 110:fft.h         **** {
 646              		.loc 1 110 0
 647              		.cfi_startproc
 648              		@ args = 0, pretend = 0, frame = 8
 649              		@ frame_needed = 1, uses_anonymous_args = 0
 650 0000 80B5     		push	{r7, lr}
 651              		.cfi_def_cfa_offset 8
ARM GAS  C:\Users\Soren\AppData\Local\Temp\ccMiQtne.s 			page 15


 652              		.cfi_offset 7, -8
 653              		.cfi_offset 14, -4
 654 0002 82B0     		sub	sp, sp, #8
 655              		.cfi_def_cfa_offset 16
 656 0004 00AF     		add	r7, sp, #0
 657              		.cfi_def_cfa_register 7
 658 0006 7860     		str	r0, [r7, #4]
 111:fft.h         ****     return u[1]/sqrt(2);  
 659              		.loc 1 111 0
 660 0008 7B68     		ldr	r3, [r7, #4]
 661 000a 0833     		adds	r3, r3, #8
 662 000c D3E90023 		ldrd	r2, [r3]
 663 0010 1046     		mov	r0, r2
 664 0012 1946     		mov	r1, r3
 665 0014 06A3     		adr	r3, .L26
 666 0016 D3E90023 		ldrd	r2, [r3]
 667 001a FFF7FEFF 		bl	__aeabi_ddiv
 668 001e 0246     		mov	r2, r0
 669 0020 0B46     		mov	r3, r1
 112:fft.h         **** }
 670              		.loc 1 112 0
 671 0022 1046     		mov	r0, r2
 672 0024 1946     		mov	r1, r3
 673 0026 0837     		adds	r7, r7, #8
 674              		.cfi_def_cfa_offset 8
 675 0028 BD46     		mov	sp, r7
 676              		.cfi_def_cfa_register 13
 677              		@ sp needed
 678 002a 80BD     		pop	{r7, pc}
 679              	.L27:
 680 002c AFF30080 		.align	3
 681              	.L26:
 682 0030 CD3B7F66 		.word	1719614413
 683 0034 9EA0F63F 		.word	1073127582
 684              		.cfi_endproc
 685              	.LFE65:
 686              		.size	calculate_50Hz_RMS, .-calculate_50Hz_RMS
 687              		.section	.text.calculate_50Hz_PF,"ax",%progbits
 688              		.align	2
 689              		.global	calculate_50Hz_PF
 690              		.thumb
 691              		.thumb_func
 692              		.type	calculate_50Hz_PF, %function
 693              	calculate_50Hz_PF:
 694              	.LFB66:
 113:fft.h         **** 
 114:fft.h         **** double calculate_50Hz_PF()
 115:fft.h         **** {
 695              		.loc 1 115 0
 696              		.cfi_startproc
 697              		@ args = 0, pretend = 0, frame = 16
 698              		@ frame_needed = 1, uses_anonymous_args = 0
 699 0000 80B5     		push	{r7, lr}
 700              		.cfi_def_cfa_offset 8
 701              		.cfi_offset 7, -8
 702              		.cfi_offset 14, -4
 703 0002 84B0     		sub	sp, sp, #16
ARM GAS  C:\Users\Soren\AppData\Local\Temp\ccMiQtne.s 			page 16


 704              		.cfi_def_cfa_offset 24
 705 0004 00AF     		add	r7, sp, #0
 706              		.cfi_def_cfa_register 7
 116:fft.h         ****     double angle_Volt = atan(Im_volt[1]/Re_volt[1]);
 707              		.loc 1 116 0
 708 0006 194B     		ldr	r3, .L30
 709 0008 D3E90201 		ldrd	r0, [r3, #8]
 710 000c 184B     		ldr	r3, .L30+4
 711 000e D3E90223 		ldrd	r2, [r3, #8]
 712 0012 FFF7FEFF 		bl	__aeabi_ddiv
 713 0016 0246     		mov	r2, r0
 714 0018 0B46     		mov	r3, r1
 715 001a 1046     		mov	r0, r2
 716 001c 1946     		mov	r1, r3
 717 001e FFF7FEFF 		bl	atan
 718 0022 C7E90201 		strd	r0, [r7, #8]
 117:fft.h         ****     double angle_Ampere = atan(Im_Ampere[1]/Re_Ampere[1]);
 719              		.loc 1 117 0
 720 0026 134B     		ldr	r3, .L30+8
 721 0028 D3E90201 		ldrd	r0, [r3, #8]
 722 002c 124B     		ldr	r3, .L30+12
 723 002e D3E90223 		ldrd	r2, [r3, #8]
 724 0032 FFF7FEFF 		bl	__aeabi_ddiv
 725 0036 0246     		mov	r2, r0
 726 0038 0B46     		mov	r3, r1
 727 003a 1046     		mov	r0, r2
 728 003c 1946     		mov	r1, r3
 729 003e FFF7FEFF 		bl	atan
 730 0042 C7E90001 		strd	r0, [r7]
 118:fft.h         ****     
 119:fft.h         ****     return cos(angle_Ampere-angle_Volt);
 731              		.loc 1 119 0
 732 0046 D7E90001 		ldrd	r0, [r7]
 733 004a D7E90223 		ldrd	r2, [r7, #8]
 734 004e FFF7FEFF 		bl	__aeabi_dsub
 735 0052 0246     		mov	r2, r0
 736 0054 0B46     		mov	r3, r1
 737 0056 1046     		mov	r0, r2
 738 0058 1946     		mov	r1, r3
 739 005a FFF7FEFF 		bl	cos
 740 005e 0246     		mov	r2, r0
 741 0060 0B46     		mov	r3, r1
 120:fft.h         ****     
 121:fft.h         **** }
 742              		.loc 1 121 0
 743 0062 1046     		mov	r0, r2
 744 0064 1946     		mov	r1, r3
 745 0066 1037     		adds	r7, r7, #16
 746              		.cfi_def_cfa_offset 8
 747 0068 BD46     		mov	sp, r7
 748              		.cfi_def_cfa_register 13
 749              		@ sp needed
 750 006a 80BD     		pop	{r7, pc}
 751              	.L31:
 752              		.align	2
 753              	.L30:
 754 006c 00000000 		.word	Im_volt
ARM GAS  C:\Users\Soren\AppData\Local\Temp\ccMiQtne.s 			page 17


 755 0070 00000000 		.word	Re_volt
 756 0074 00000000 		.word	Im_Ampere
 757 0078 00000000 		.word	Re_Ampere
 758              		.cfi_endproc
 759              	.LFE66:
 760              		.size	calculate_50Hz_PF, .-calculate_50Hz_PF
 761              		.section	.text.calculate_THD,"ax",%progbits
 762              		.align	2
 763              		.global	calculate_THD
 764              		.thumb
 765              		.thumb_func
 766              		.type	calculate_THD, %function
 767              	calculate_THD:
 768              	.LFB67:
 122:fft.h         **** 
 123:fft.h         **** double calculate_THD()
 124:fft.h         **** {
 769              		.loc 1 124 0
 770              		.cfi_startproc
 771              		@ args = 0, pretend = 0, frame = 0
 772              		@ frame_needed = 1, uses_anonymous_args = 0
 773 0000 B0B5     		push	{r4, r5, r7, lr}
 774              		.cfi_def_cfa_offset 16
 775              		.cfi_offset 4, -16
 776              		.cfi_offset 5, -12
 777              		.cfi_offset 7, -8
 778              		.cfi_offset 14, -4
 779 0002 00AF     		add	r7, sp, #0
 780              		.cfi_def_cfa_register 7
 125:fft.h         ****    return sqrt(Abs_volt[2]*Abs_volt[2]+Abs_volt[3]*Abs_volt[3]+Abs_volt[4]*Abs_volt[4]+Abs_volt[5]*
 781              		.loc 1 125 0
 782 0004 264B     		ldr	r3, .L34
 783 0006 D3E90401 		ldrd	r0, [r3, #16]
 784 000a 254B     		ldr	r3, .L34
 785 000c D3E90423 		ldrd	r2, [r3, #16]
 786 0010 FFF7FEFF 		bl	__aeabi_dmul
 787 0014 0246     		mov	r2, r0
 788 0016 0B46     		mov	r3, r1
 789 0018 1446     		mov	r4, r2
 790 001a 1D46     		mov	r5, r3
 791 001c 204B     		ldr	r3, .L34
 792 001e D3E90601 		ldrd	r0, [r3, #24]
 793 0022 1F4B     		ldr	r3, .L34
 794 0024 D3E90623 		ldrd	r2, [r3, #24]
 795 0028 FFF7FEFF 		bl	__aeabi_dmul
 796 002c 0246     		mov	r2, r0
 797 002e 0B46     		mov	r3, r1
 798 0030 2046     		mov	r0, r4
 799 0032 2946     		mov	r1, r5
 800 0034 FFF7FEFF 		bl	__aeabi_dadd
 801 0038 0246     		mov	r2, r0
 802 003a 0B46     		mov	r3, r1
 803 003c 1446     		mov	r4, r2
 804 003e 1D46     		mov	r5, r3
 805 0040 174B     		ldr	r3, .L34
 806 0042 D3E90801 		ldrd	r0, [r3, #32]
 807 0046 164B     		ldr	r3, .L34
ARM GAS  C:\Users\Soren\AppData\Local\Temp\ccMiQtne.s 			page 18


 808 0048 D3E90823 		ldrd	r2, [r3, #32]
 809 004c FFF7FEFF 		bl	__aeabi_dmul
 810 0050 0246     		mov	r2, r0
 811 0052 0B46     		mov	r3, r1
 812 0054 2046     		mov	r0, r4
 813 0056 2946     		mov	r1, r5
 814 0058 FFF7FEFF 		bl	__aeabi_dadd
 815 005c 0246     		mov	r2, r0
 816 005e 0B46     		mov	r3, r1
 817 0060 1446     		mov	r4, r2
 818 0062 1D46     		mov	r5, r3
 819 0064 0E4B     		ldr	r3, .L34
 820 0066 D3E90A01 		ldrd	r0, [r3, #40]
 821 006a 0D4B     		ldr	r3, .L34
 822 006c D3E90A23 		ldrd	r2, [r3, #40]
 823 0070 FFF7FEFF 		bl	__aeabi_dmul
 824 0074 0246     		mov	r2, r0
 825 0076 0B46     		mov	r3, r1
 826 0078 2046     		mov	r0, r4
 827 007a 2946     		mov	r1, r5
 828 007c FFF7FEFF 		bl	__aeabi_dadd
 829 0080 0246     		mov	r2, r0
 830 0082 0B46     		mov	r3, r1
 831 0084 1046     		mov	r0, r2
 832 0086 1946     		mov	r1, r3
 833 0088 FFF7FEFF 		bl	sqrt
 834 008c 044B     		ldr	r3, .L34
 835 008e D3E90223 		ldrd	r2, [r3, #8]
 836 0092 FFF7FEFF 		bl	__aeabi_ddiv
 837 0096 0246     		mov	r2, r0
 838 0098 0B46     		mov	r3, r1
 126:fft.h         **** }
 839              		.loc 1 126 0
 840 009a 1046     		mov	r0, r2
 841 009c 1946     		mov	r1, r3
 842 009e B0BD     		pop	{r4, r5, r7, pc}
 843              	.L35:
 844              		.align	2
 845              	.L34:
 846 00a0 00000000 		.word	Abs_volt
 847              		.cfi_endproc
 848              	.LFE67:
 849              		.size	calculate_THD, .-calculate_THD
 850              		.global	__aeabi_i2d
 851              		.section	.text.main,"ax",%progbits
 852              		.align	2
 853              		.global	main
 854              		.thumb
 855              		.thumb_func
 856              		.type	main, %function
 857              	main:
 858              	.LFB68:
 859              		.file 2 "main.c"
   1:main.c        **** /* ========================================
   2:main.c        ****  *
   3:main.c        ****  * Copyright YOUR COMPANY, THE YEAR
   4:main.c        ****  * All Rights Reserved
ARM GAS  C:\Users\Soren\AppData\Local\Temp\ccMiQtne.s 			page 19


   5:main.c        ****  * UNPUBLISHED, LICENSED SOFTWARE.
   6:main.c        ****  *
   7:main.c        ****  * CONFIDENTIAL AND PROPRIETARY INFORMATION
   8:main.c        ****  * WHICH IS THE PROPERTY OF your company.
   9:main.c        ****  *
  10:main.c        ****  * ========================================
  11:main.c        **** */
  12:main.c        **** #include "project.h"
  13:main.c        **** #include "stdio.h"
  14:main.c        **** #include "sample.h"
  15:main.c        **** #include "fft.h"
  16:main.c        **** #define SIZE 128
  17:main.c        **** 
  18:main.c        **** int main(void)
  19:main.c        **** {
 860              		.loc 2 19 0
 861              		.cfi_startproc
 862              		@ args = 0, pretend = 0, frame = 568
 863              		@ frame_needed = 1, uses_anonymous_args = 0
 864 0000 80B5     		push	{r7, lr}
 865              		.cfi_def_cfa_offset 8
 866              		.cfi_offset 7, -8
 867              		.cfi_offset 14, -4
 868 0002 ADF5107D 		sub	sp, sp, #576
 869              		.cfi_def_cfa_offset 584
 870 0006 02AF     		add	r7, sp, #8
 871              		.cfi_def_cfa 7, 576
  20:main.c        ****     //CyGlobalIntEnable; /* Enable global interrupts. */
  21:main.c        **** 
  22:main.c        ****     /* Place your initialization/startup code here (e.g. MyInst_Start()) */
  23:main.c        ****     
  24:main.c        ****     ADC_DelSig_1_Start();
 872              		.loc 2 24 0
 873 0008 FFF7FEFF 		bl	ADC_DelSig_1_Start
  25:main.c        ****     ADC_DelSig_1_StartConvert();
 874              		.loc 2 25 0
 875 000c FFF7FEFF 		bl	ADC_DelSig_1_StartConvert
  26:main.c        ****     
  27:main.c        ****     AMux_1_Start();
 876              		.loc 2 27 0
 877 0010 FFF7FEFF 		bl	AMux_1_Start
  28:main.c        ****     AMux_2_Start();
 878              		.loc 2 28 0
 879 0014 FFF7FEFF 		bl	AMux_2_Start
  29:main.c        ****     
  30:main.c        ****     int SampleArrayU[SIZE/2]={0};
 880              		.loc 2 30 0
 881 0018 07F58073 		add	r3, r7, #256
 882 001c 1A46     		mov	r2, r3
 883 001e 4FF48073 		mov	r3, #256
 884 0022 1046     		mov	r0, r2
 885 0024 0021     		movs	r1, #0
 886 0026 1A46     		mov	r2, r3
 887 0028 FFF7FEFF 		bl	memset
  31:main.c        ****     int SampleArrayI[SIZE/2]={0};
 888              		.loc 2 31 0
 889 002c 3B46     		mov	r3, r7
ARM GAS  C:\Users\Soren\AppData\Local\Temp\ccMiQtne.s 			page 20


 890 002e 1A46     		mov	r2, r3
 891 0030 4FF48073 		mov	r3, #256
 892 0034 1046     		mov	r0, r2
 893 0036 0021     		movs	r1, #0
 894 0038 1A46     		mov	r2, r3
 895 003a FFF7FEFF 		bl	memset
  32:main.c        ****     int p = 0;
 896              		.loc 2 32 0
 897 003e 0023     		movs	r3, #0
 898 0040 C7F83432 		str	r3, [r7, #564]
  33:main.c        ****     double Amp_Volt = 0;
 899              		.loc 2 33 0
 900 0044 4FF00002 		mov	r2, #0
 901 0048 4FF00003 		mov	r3, #0
 902 004c 07F50A71 		add	r1, r7, #552
 903 0050 C1E90023 		strd	r2, [r1]
  34:main.c        ****     double RMS_Volt = 0;
 904              		.loc 2 34 0
 905 0054 4FF00002 		mov	r2, #0
 906 0058 4FF00003 		mov	r3, #0
 907 005c 07F50871 		add	r1, r7, #544
 908 0060 C1E90023 		strd	r2, [r1]
  35:main.c        ****     double Amp_Ampere = 0;
 909              		.loc 2 35 0
 910 0064 4FF00002 		mov	r2, #0
 911 0068 4FF00003 		mov	r3, #0
 912 006c 07F50671 		add	r1, r7, #536
 913 0070 C1E90023 		strd	r2, [r1]
  36:main.c        ****     double RMS_Ampere = 0;
 914              		.loc 2 36 0
 915 0074 4FF00002 		mov	r2, #0
 916 0078 4FF00003 		mov	r3, #0
 917 007c 07F50471 		add	r1, r7, #528
 918 0080 C1E90023 		strd	r2, [r1]
  37:main.c        ****     double PF = 0;
 919              		.loc 2 37 0
 920 0084 4FF00002 		mov	r2, #0
 921 0088 4FF00003 		mov	r3, #0
 922 008c 07F50271 		add	r1, r7, #520
 923 0090 C1E90023 		strd	r2, [r1]
  38:main.c        ****     double THD = 0;
 924              		.loc 2 38 0
 925 0094 4FF00002 		mov	r2, #0
 926 0098 4FF00003 		mov	r3, #0
 927 009c 07F50071 		add	r1, r7, #512
 928 00a0 C1E90023 		strd	r2, [r1]
 929              	.L39:
  39:main.c        **** 
  40:main.c        ****     while(1)
  41:main.c        ****     {
  42:main.c        ****     /*Samplefunktion*/
  43:main.c        ****     
  44:main.c        ****     sampleUandI(SampleArrayU,SampleArrayI,SIZE);
 930              		.loc 2 44 0
 931 00a4 07F58072 		add	r2, r7, #256
 932 00a8 3B46     		mov	r3, r7
 933 00aa 1046     		mov	r0, r2
ARM GAS  C:\Users\Soren\AppData\Local\Temp\ccMiQtne.s 			page 21


 934 00ac 1946     		mov	r1, r3
 935 00ae 8022     		movs	r2, #128
 936 00b0 FFF7FEFF 		bl	sampleUandI
  45:main.c        **** 
  46:main.c        ****     
  47:main.c        ****     for(p = 0; p<N_points ; p++)
 937              		.loc 2 47 0
 938 00b4 0023     		movs	r3, #0
 939 00b6 C7F83432 		str	r3, [r7, #564]
 940 00ba 3DE0     		b	.L37
 941              	.L38:
  48:main.c        ****     {
  49:main.c        ****         Re_volt[p] = SampleArrayU[p];
 942              		.loc 2 49 0 discriminator 3
 943 00bc 07F58073 		add	r3, r7, #256
 944 00c0 D7F83422 		ldr	r2, [r7, #564]
 945 00c4 53F82230 		ldr	r3, [r3, r2, lsl #2]
 946 00c8 1846     		mov	r0, r3
 947 00ca FFF7FEFF 		bl	__aeabi_i2d
 948 00ce 0246     		mov	r2, r0
 949 00d0 0B46     		mov	r3, r1
 950 00d2 3848     		ldr	r0, .L40
 951 00d4 D7F83412 		ldr	r1, [r7, #564]
 952 00d8 C900     		lsls	r1, r1, #3
 953 00da 0144     		add	r1, r1, r0
 954 00dc C1E90023 		strd	r2, [r1]
  50:main.c        ****         Im_volt[p] = 0;
 955              		.loc 2 50 0 discriminator 3
 956 00e0 354A     		ldr	r2, .L40+4
 957 00e2 D7F83432 		ldr	r3, [r7, #564]
 958 00e6 DB00     		lsls	r3, r3, #3
 959 00e8 D118     		adds	r1, r2, r3
 960 00ea 4FF00002 		mov	r2, #0
 961 00ee 4FF00003 		mov	r3, #0
 962 00f2 C1E90023 		strd	r2, [r1]
  51:main.c        ****         
  52:main.c        ****         Re_Ampere[p] = SampleArrayI[p];
 963              		.loc 2 52 0 discriminator 3
 964 00f6 3B46     		mov	r3, r7
 965 00f8 D7F83422 		ldr	r2, [r7, #564]
 966 00fc 53F82230 		ldr	r3, [r3, r2, lsl #2]
 967 0100 1846     		mov	r0, r3
 968 0102 FFF7FEFF 		bl	__aeabi_i2d
 969 0106 0246     		mov	r2, r0
 970 0108 0B46     		mov	r3, r1
 971 010a 2C48     		ldr	r0, .L40+8
 972 010c D7F83412 		ldr	r1, [r7, #564]
 973 0110 C900     		lsls	r1, r1, #3
 974 0112 0144     		add	r1, r1, r0
 975 0114 C1E90023 		strd	r2, [r1]
  53:main.c        ****         Im_Ampere[p] = 0;
 976              		.loc 2 53 0 discriminator 3
 977 0118 294A     		ldr	r2, .L40+12
 978 011a D7F83432 		ldr	r3, [r7, #564]
 979 011e DB00     		lsls	r3, r3, #3
 980 0120 D118     		adds	r1, r2, r3
 981 0122 4FF00002 		mov	r2, #0
ARM GAS  C:\Users\Soren\AppData\Local\Temp\ccMiQtne.s 			page 22


 982 0126 4FF00003 		mov	r3, #0
 983 012a C1E90023 		strd	r2, [r1]
  47:main.c        ****     {
 984              		.loc 2 47 0 discriminator 3
 985 012e D7F83432 		ldr	r3, [r7, #564]
 986 0132 0133     		adds	r3, r3, #1
 987 0134 C7F83432 		str	r3, [r7, #564]
 988              	.L37:
  47:main.c        ****     {
 989              		.loc 2 47 0 is_stmt 0 discriminator 1
 990 0138 D7F83432 		ldr	r3, [r7, #564]
 991 013c 3F2B     		cmp	r3, #63
 992 013e BDDD     		ble	.L38
  54:main.c        ****     }
  55:main.c        ****       
  56:main.c        ****     
  57:main.c        ****     FFT(2,exponent,Re_volt,Im_volt,Abs_volt);
 993              		.loc 2 57 0 is_stmt 1
 994 0140 204B     		ldr	r3, .L40+16
 995 0142 0093     		str	r3, [sp]
 996 0144 0220     		movs	r0, #2
 997 0146 0621     		movs	r1, #6
 998 0148 1A4A     		ldr	r2, .L40
 999 014a 1B4B     		ldr	r3, .L40+4
 1000 014c FFF7FEFF 		bl	FFT
  58:main.c        ****     FFT(2,exponent,Re_Ampere,Im_Ampere,Abs_Ampere);
 1001              		.loc 2 58 0
 1002 0150 1D4B     		ldr	r3, .L40+20
 1003 0152 0093     		str	r3, [sp]
 1004 0154 0220     		movs	r0, #2
 1005 0156 0621     		movs	r1, #6
 1006 0158 184A     		ldr	r2, .L40+8
 1007 015a 194B     		ldr	r3, .L40+12
 1008 015c FFF7FEFF 		bl	FFT
  59:main.c        ****     
  60:main.c        ****     
  61:main.c        ****     Amp_Volt = calculate_50Hz_Amp(Abs_volt);
 1009              		.loc 2 61 0
 1010 0160 1848     		ldr	r0, .L40+16
 1011 0162 FFF7FEFF 		bl	calculate_50Hz_Amp
 1012 0166 07F50A73 		add	r3, r7, #552
 1013 016a C3E90001 		strd	r0, [r3]
  62:main.c        ****     RMS_Volt = calculate_50Hz_RMS(Abs_volt);
 1014              		.loc 2 62 0
 1015 016e 1548     		ldr	r0, .L40+16
 1016 0170 FFF7FEFF 		bl	calculate_50Hz_RMS
 1017 0174 07F50873 		add	r3, r7, #544
 1018 0178 C3E90001 		strd	r0, [r3]
  63:main.c        ****     Amp_Ampere = calculate_50Hz_Amp(Abs_Ampere);
 1019              		.loc 2 63 0
 1020 017c 1248     		ldr	r0, .L40+20
 1021 017e FFF7FEFF 		bl	calculate_50Hz_Amp
 1022 0182 07F50673 		add	r3, r7, #536
 1023 0186 C3E90001 		strd	r0, [r3]
  64:main.c        ****     RMS_Ampere = calculate_50Hz_RMS(Abs_Ampere);
 1024              		.loc 2 64 0
 1025 018a 0F48     		ldr	r0, .L40+20
ARM GAS  C:\Users\Soren\AppData\Local\Temp\ccMiQtne.s 			page 23


 1026 018c FFF7FEFF 		bl	calculate_50Hz_RMS
 1027 0190 07F50473 		add	r3, r7, #528
 1028 0194 C3E90001 		strd	r0, [r3]
  65:main.c        ****     PF = calculate_50Hz_PF();
 1029              		.loc 2 65 0
 1030 0198 FFF7FEFF 		bl	calculate_50Hz_PF
 1031 019c 07F50273 		add	r3, r7, #520
 1032 01a0 C3E90001 		strd	r0, [r3]
  66:main.c        ****     THD = calculate_THD();
 1033              		.loc 2 66 0
 1034 01a4 FFF7FEFF 		bl	calculate_THD
 1035 01a8 07F50073 		add	r3, r7, #512
 1036 01ac C3E90001 		strd	r0, [r3]
  67:main.c        ****     }   
 1037              		.loc 2 67 0
 1038 01b0 78E7     		b	.L39
 1039              	.L41:
 1040 01b2 00BF     		.align	2
 1041              	.L40:
 1042 01b4 00000000 		.word	Re_volt
 1043 01b8 00000000 		.word	Im_volt
 1044 01bc 00000000 		.word	Re_Ampere
 1045 01c0 00000000 		.word	Im_Ampere
 1046 01c4 00000000 		.word	Abs_volt
 1047 01c8 00000000 		.word	Abs_Ampere
 1048              		.cfi_endproc
 1049              	.LFE68:
 1050              		.size	main, .-main
 1051              		.text
 1052              	.Letext0:
 1053              		.file 3 "c:\\program files (x86)\\cypress\\psoc creator\\4.0\\psoc creator\\import\\gnu\\arm\\4.9.
 1054              		.file 4 "c:\\program files (x86)\\cypress\\psoc creator\\4.0\\psoc creator\\import\\gnu\\arm\\4.9.
 1055              		.file 5 "Generated_Source\\PSoC5/core_cm3.h"