ARM GAS  C:\Users\Soren\AppData\Local\Temp\ccRAs7tI.s 			page 1


   1              		.syntax unified
   2              		.cpu cortex-m3
   3              		.fpu softvfp
   4              		.eabi_attribute 20, 1
   5              		.eabi_attribute 21, 1
   6              		.eabi_attribute 23, 3
   7              		.eabi_attribute 24, 1
   8              		.eabi_attribute 25, 1
   9              		.eabi_attribute 26, 1
  10              		.eabi_attribute 30, 6
  11              		.eabi_attribute 34, 1
  12              		.eabi_attribute 18, 4
  13              		.thumb
  14              		.file	"fft.c"
  15              		.text
  16              	.Ltext0:
  17              		.cfi_sections	.debug_frame
  18              		.global	Abs_volt
  19              		.bss
  20              		.align	3
  21              		.type	Abs_volt, %object
  22              		.size	Abs_volt, 512
  23              	Abs_volt:
  24 0000 00000000 		.space	512
  24      00000000 
  24      00000000 
  24      00000000 
  24      00000000 
  25              		.global	Re_volt
  26              		.align	3
  27              		.type	Re_volt, %object
  28              		.size	Re_volt, 512
  29              	Re_volt:
  30 0200 00000000 		.space	512
  30      00000000 
  30      00000000 
  30      00000000 
  30      00000000 
  31              		.global	Im_volt
  32              		.align	3
  33              		.type	Im_volt, %object
  34              		.size	Im_volt, 512
  35              	Im_volt:
  36 0400 00000000 		.space	512
  36      00000000 
  36      00000000 
  36      00000000 
  36      00000000 
  37              		.global	Abs_Ampere
  38              		.align	3
  39              		.type	Abs_Ampere, %object
  40              		.size	Abs_Ampere, 512
  41              	Abs_Ampere:
  42 0600 00000000 		.space	512
  42      00000000 
  42      00000000 
  42      00000000 
ARM GAS  C:\Users\Soren\AppData\Local\Temp\ccRAs7tI.s 			page 2


  42      00000000 
  43              		.global	Re_Ampere
  44              		.align	3
  45              		.type	Re_Ampere, %object
  46              		.size	Re_Ampere, 512
  47              	Re_Ampere:
  48 0800 00000000 		.space	512
  48      00000000 
  48      00000000 
  48      00000000 
  48      00000000 
  49              		.global	Im_Ampere
  50              		.align	3
  51              		.type	Im_Ampere, %object
  52              		.size	Im_Ampere, 512
  53              	Im_Ampere:
  54 0a00 00000000 		.space	512
  54      00000000 
  54      00000000 
  54      00000000 
  54      00000000 
  55              		.global	SampleArrayU
  56              		.align	2
  57              		.type	SampleArrayU, %object
  58              		.size	SampleArrayU, 256
  59              	SampleArrayU:
  60 0c00 00000000 		.space	256
  60      00000000 
  60      00000000 
  60      00000000 
  60      00000000 
  61              		.global	SampleArrayI
  62              		.align	2
  63              		.type	SampleArrayI, %object
  64              		.size	SampleArrayI, 256
  65              	SampleArrayI:
  66 0d00 00000000 		.space	256
  66      00000000 
  66      00000000 
  66      00000000 
  66      00000000 
  67              		.global	p
  68              		.align	2
  69              		.type	p, %object
  70              		.size	p, 4
  71              	p:
  72 0e00 00000000 		.space	4
  73              		.global	Amp_Volt
  74 0e04 00000000 		.align	3
  75              		.type	Amp_Volt, %object
  76              		.size	Amp_Volt, 8
  77              	Amp_Volt:
  78 0e08 00000000 		.space	8
  78      00000000 
  79              		.global	RMS_Volt
  80              		.align	3
  81              		.type	RMS_Volt, %object
ARM GAS  C:\Users\Soren\AppData\Local\Temp\ccRAs7tI.s 			page 3


  82              		.size	RMS_Volt, 8
  83              	RMS_Volt:
  84 0e10 00000000 		.space	8
  84      00000000 
  85              		.global	Amp_Ampere
  86              		.align	3
  87              		.type	Amp_Ampere, %object
  88              		.size	Amp_Ampere, 8
  89              	Amp_Ampere:
  90 0e18 00000000 		.space	8
  90      00000000 
  91              		.global	RMS_Ampere
  92              		.align	3
  93              		.type	RMS_Ampere, %object
  94              		.size	RMS_Ampere, 8
  95              	RMS_Ampere:
  96 0e20 00000000 		.space	8
  96      00000000 
  97              		.global	PF
  98              		.align	3
  99              		.type	PF, %object
 100              		.size	PF, 8
 101              	PF:
 102 0e28 00000000 		.space	8
 102      00000000 
 103              		.global	THD
 104              		.align	3
 105              		.type	THD, %object
 106              		.size	THD, 8
 107              	THD:
 108 0e30 00000000 		.space	8
 108      00000000 
 109              		.global	__aeabi_dmul
 110              		.global	__aeabi_dsub
 111              		.global	__aeabi_dadd
 112              		.global	__aeabi_ddiv
 113              		.section	.text.FFT,"ax",%progbits
 114              		.align	2
 115              		.global	FFT
 116              		.thumb
 117              		.thumb_func
 118              		.type	FFT, %function
 119              	FFT:
 120              	.LFB63:
 121              		.file 1 "fft.c"
   1:fft.c         **** /* ========================================
   2:fft.c         ****  *
   3:fft.c         ****  * Copyright YOUR COMPANY, THE YEAR
   4:fft.c         ****  * All Rights Reserved
   5:fft.c         ****  * UNPUBLISHED, LICENSED SOFTWARE.
   6:fft.c         ****  *
   7:fft.c         ****  * CONFIDENTIAL AND PROPRIETARY INFORMATION
   8:fft.c         ****  * WHICH IS THE PROPERTY OF your company.
   9:fft.c         ****  *
  10:fft.c         ****  * ========================================
  11:fft.c         **** */
  12:fft.c         **** #include "fft.h"
ARM GAS  C:\Users\Soren\AppData\Local\Temp\ccRAs7tI.s 			page 4


  13:fft.c         **** 
  14:fft.c         **** /* [] END OF FILE */
  15:fft.c         **** void FFT(int dir,long m,double *x,double *y, double *u)
  16:fft.c         **** {
 122              		.loc 1 16 0
 123              		.cfi_startproc
 124              		@ args = 4, pretend = 0, frame = 128
 125              		@ frame_needed = 1, uses_anonymous_args = 0
 126 0000 2DE9B043 		push	{r4, r5, r7, r8, r9, lr}
 127              		.cfi_def_cfa_offset 24
 128              		.cfi_offset 4, -24
 129              		.cfi_offset 5, -20
 130              		.cfi_offset 7, -16
 131              		.cfi_offset 8, -12
 132              		.cfi_offset 9, -8
 133              		.cfi_offset 14, -4
 134 0004 A0B0     		sub	sp, sp, #128
 135              		.cfi_def_cfa_offset 152
 136 0006 00AF     		add	r7, sp, #0
 137              		.cfi_def_cfa_register 7
 138 0008 F860     		str	r0, [r7, #12]
 139 000a B960     		str	r1, [r7, #8]
 140 000c 7A60     		str	r2, [r7, #4]
 141 000e 3B60     		str	r3, [r7]
  17:fft.c         ****    // dir:  forward (=1) o inverse (!=1) transform; 
  18:fft.c         ****    // m exponent;
  19:fft.c         ****    
  20:fft.c         ****    long n,i,i1,j,k,i2,l,l1,l2;
  21:fft.c         ****    double c1,c2,tx,ty,t1,t2,u1,u2,z;
  22:fft.c         **** 
  23:fft.c         ****    /* Calculate the number of points */
  24:fft.c         ****    n = 1;
 142              		.loc 1 24 0
 143 0010 0123     		movs	r3, #1
 144 0012 FB67     		str	r3, [r7, #124]
  25:fft.c         ****    for (i=0;i<m;i++) 
 145              		.loc 1 25 0
 146 0014 0023     		movs	r3, #0
 147 0016 BB67     		str	r3, [r7, #120]
 148 0018 05E0     		b	.L2
 149              	.L3:
  26:fft.c         ****       n *= 2;
 150              		.loc 1 26 0 discriminator 3
 151 001a FB6F     		ldr	r3, [r7, #124]
 152 001c 5B00     		lsls	r3, r3, #1
 153 001e FB67     		str	r3, [r7, #124]
  25:fft.c         ****    for (i=0;i<m;i++) 
 154              		.loc 1 25 0 discriminator 3
 155 0020 BB6F     		ldr	r3, [r7, #120]
 156 0022 0133     		adds	r3, r3, #1
 157 0024 BB67     		str	r3, [r7, #120]
 158              	.L2:
  25:fft.c         ****    for (i=0;i<m;i++) 
 159              		.loc 1 25 0 is_stmt 0 discriminator 1
 160 0026 BA6F     		ldr	r2, [r7, #120]
 161 0028 BB68     		ldr	r3, [r7, #8]
 162 002a 9A42     		cmp	r2, r3
ARM GAS  C:\Users\Soren\AppData\Local\Temp\ccRAs7tI.s 			page 5


 163 002c F5DB     		blt	.L3
  27:fft.c         **** 
  28:fft.c         ****    /* Do the bit reversal */
  29:fft.c         ****    i2 = n >> 1;
 164              		.loc 1 29 0 is_stmt 1
 165 002e FB6F     		ldr	r3, [r7, #124]
 166 0030 5B10     		asrs	r3, r3, #1
 167 0032 7B64     		str	r3, [r7, #68]
  30:fft.c         ****    j = 0;
 168              		.loc 1 30 0
 169 0034 0023     		movs	r3, #0
 170 0036 7B67     		str	r3, [r7, #116]
  31:fft.c         ****    for (i=0;i<n-1;i++) {
 171              		.loc 1 31 0
 172 0038 0023     		movs	r3, #0
 173 003a BB67     		str	r3, [r7, #120]
 174 003c 50E0     		b	.L4
 175              	.L8:
  32:fft.c         ****       if (i < j) {
 176              		.loc 1 32 0
 177 003e BA6F     		ldr	r2, [r7, #120]
 178 0040 7B6F     		ldr	r3, [r7, #116]
 179 0042 9A42     		cmp	r2, r3
 180 0044 37DA     		bge	.L5
  33:fft.c         ****          tx = x[i];
 181              		.loc 1 33 0
 182 0046 BB6F     		ldr	r3, [r7, #120]
 183 0048 DB00     		lsls	r3, r3, #3
 184 004a 7A68     		ldr	r2, [r7, #4]
 185 004c 1344     		add	r3, r3, r2
 186 004e D3E90023 		ldrd	r2, [r3]
 187 0052 C7E90E23 		strd	r2, [r7, #56]
  34:fft.c         ****          ty = y[i];
 188              		.loc 1 34 0
 189 0056 BB6F     		ldr	r3, [r7, #120]
 190 0058 DB00     		lsls	r3, r3, #3
 191 005a 3A68     		ldr	r2, [r7]
 192 005c 1344     		add	r3, r3, r2
 193 005e D3E90023 		ldrd	r2, [r3]
 194 0062 C7E90C23 		strd	r2, [r7, #48]
  35:fft.c         ****          x[i] = x[j];
 195              		.loc 1 35 0
 196 0066 BB6F     		ldr	r3, [r7, #120]
 197 0068 DB00     		lsls	r3, r3, #3
 198 006a 7A68     		ldr	r2, [r7, #4]
 199 006c D118     		adds	r1, r2, r3
 200 006e 7B6F     		ldr	r3, [r7, #116]
 201 0070 DB00     		lsls	r3, r3, #3
 202 0072 7A68     		ldr	r2, [r7, #4]
 203 0074 1344     		add	r3, r3, r2
 204 0076 D3E90023 		ldrd	r2, [r3]
 205 007a C1E90023 		strd	r2, [r1]
  36:fft.c         ****          y[i] = y[j];
 206              		.loc 1 36 0
 207 007e BB6F     		ldr	r3, [r7, #120]
 208 0080 DB00     		lsls	r3, r3, #3
 209 0082 3A68     		ldr	r2, [r7]
ARM GAS  C:\Users\Soren\AppData\Local\Temp\ccRAs7tI.s 			page 6


 210 0084 D118     		adds	r1, r2, r3
 211 0086 7B6F     		ldr	r3, [r7, #116]
 212 0088 DB00     		lsls	r3, r3, #3
 213 008a 3A68     		ldr	r2, [r7]
 214 008c 1344     		add	r3, r3, r2
 215 008e D3E90023 		ldrd	r2, [r3]
 216 0092 C1E90023 		strd	r2, [r1]
  37:fft.c         ****          x[j] = tx;
 217              		.loc 1 37 0
 218 0096 7B6F     		ldr	r3, [r7, #116]
 219 0098 DB00     		lsls	r3, r3, #3
 220 009a 7A68     		ldr	r2, [r7, #4]
 221 009c D118     		adds	r1, r2, r3
 222 009e D7E90E23 		ldrd	r2, [r7, #56]
 223 00a2 C1E90023 		strd	r2, [r1]
  38:fft.c         ****          y[j] = ty;
 224              		.loc 1 38 0
 225 00a6 7B6F     		ldr	r3, [r7, #116]
 226 00a8 DB00     		lsls	r3, r3, #3
 227 00aa 3A68     		ldr	r2, [r7]
 228 00ac D118     		adds	r1, r2, r3
 229 00ae D7E90C23 		ldrd	r2, [r7, #48]
 230 00b2 C1E90023 		strd	r2, [r1]
 231              	.L5:
  39:fft.c         ****       }
  40:fft.c         ****       k = i2;
 232              		.loc 1 40 0
 233 00b6 7B6C     		ldr	r3, [r7, #68]
 234 00b8 3B67     		str	r3, [r7, #112]
  41:fft.c         ****       while (k <= j) {
 235              		.loc 1 41 0
 236 00ba 06E0     		b	.L6
 237              	.L7:
  42:fft.c         ****          j -= k;
 238              		.loc 1 42 0
 239 00bc 7A6F     		ldr	r2, [r7, #116]
 240 00be 3B6F     		ldr	r3, [r7, #112]
 241 00c0 D31A     		subs	r3, r2, r3
 242 00c2 7B67     		str	r3, [r7, #116]
  43:fft.c         ****          k >>= 1;
 243              		.loc 1 43 0
 244 00c4 3B6F     		ldr	r3, [r7, #112]
 245 00c6 5B10     		asrs	r3, r3, #1
 246 00c8 3B67     		str	r3, [r7, #112]
 247              	.L6:
  41:fft.c         ****       while (k <= j) {
 248              		.loc 1 41 0
 249 00ca 3A6F     		ldr	r2, [r7, #112]
 250 00cc 7B6F     		ldr	r3, [r7, #116]
 251 00ce 9A42     		cmp	r2, r3
 252 00d0 F4DD     		ble	.L7
  44:fft.c         ****       }
  45:fft.c         ****       j += k;
 253              		.loc 1 45 0 discriminator 2
 254 00d2 7A6F     		ldr	r2, [r7, #116]
 255 00d4 3B6F     		ldr	r3, [r7, #112]
 256 00d6 1344     		add	r3, r3, r2
ARM GAS  C:\Users\Soren\AppData\Local\Temp\ccRAs7tI.s 			page 7


 257 00d8 7B67     		str	r3, [r7, #116]
  31:fft.c         ****       if (i < j) {
 258              		.loc 1 31 0 discriminator 2
 259 00da BB6F     		ldr	r3, [r7, #120]
 260 00dc 0133     		adds	r3, r3, #1
 261 00de BB67     		str	r3, [r7, #120]
 262              	.L4:
  31:fft.c         ****       if (i < j) {
 263              		.loc 1 31 0 is_stmt 0 discriminator 1
 264 00e0 FB6F     		ldr	r3, [r7, #124]
 265 00e2 5A1E     		subs	r2, r3, #1
 266 00e4 BB6F     		ldr	r3, [r7, #120]
 267 00e6 9A42     		cmp	r2, r3
 268 00e8 A9DC     		bgt	.L8
  46:fft.c         ****    }
  47:fft.c         **** 
  48:fft.c         ****    /* Compute the FFT */
  49:fft.c         ****    c1 = -1.0; 
 269              		.loc 1 49 0 is_stmt 1
 270 00ea 4FF00002 		mov	r2, #0
 271 00ee A94B     		ldr	r3, .L18
 272 00f0 C7E91823 		strd	r2, [r7, #96]
  50:fft.c         ****    c2 = 0.0;
 273              		.loc 1 50 0
 274 00f4 4FF00002 		mov	r2, #0
 275 00f8 4FF00003 		mov	r3, #0
 276 00fc C7E91623 		strd	r2, [r7, #88]
  51:fft.c         ****    l2 = 1;
 277              		.loc 1 51 0
 278 0100 0123     		movs	r3, #1
 279 0102 BB66     		str	r3, [r7, #104]
  52:fft.c         ****    for (l=0;l<m;l++) {
 280              		.loc 1 52 0
 281 0104 0023     		movs	r3, #0
 282 0106 FB66     		str	r3, [r7, #108]
 283 0108 3CE1     		b	.L9
 284              	.L15:
  53:fft.c         ****       l1 = l2;
 285              		.loc 1 53 0
 286 010a BB6E     		ldr	r3, [r7, #104]
 287 010c FB62     		str	r3, [r7, #44]
  54:fft.c         ****       l2 <<= 1;
 288              		.loc 1 54 0
 289 010e BB6E     		ldr	r3, [r7, #104]
 290 0110 5B00     		lsls	r3, r3, #1
 291 0112 BB66     		str	r3, [r7, #104]
  55:fft.c         ****       u1 = 1.0; 
 292              		.loc 1 55 0
 293 0114 4FF00002 		mov	r2, #0
 294 0118 9F4B     		ldr	r3, .L18+4
 295 011a C7E91423 		strd	r2, [r7, #80]
  56:fft.c         ****       u2 = 0.0;
 296              		.loc 1 56 0
 297 011e 4FF00002 		mov	r2, #0
 298 0122 4FF00003 		mov	r3, #0
 299 0126 C7E91223 		strd	r2, [r7, #72]
  57:fft.c         ****       for (j=0;j<l1;j++) {
ARM GAS  C:\Users\Soren\AppData\Local\Temp\ccRAs7tI.s 			page 8


 300              		.loc 1 57 0
 301 012a 0023     		movs	r3, #0
 302 012c 7B67     		str	r3, [r7, #116]
 303 012e E6E0     		b	.L10
 304              	.L13:
  58:fft.c         ****          for (i=j;i<n;i+=l2) {
 305              		.loc 1 58 0
 306 0130 7B6F     		ldr	r3, [r7, #116]
 307 0132 BB67     		str	r3, [r7, #120]
 308 0134 A3E0     		b	.L11
 309              	.L12:
  59:fft.c         ****             i1 = i + l1;
 310              		.loc 1 59 0 discriminator 3
 311 0136 BA6F     		ldr	r2, [r7, #120]
 312 0138 FB6A     		ldr	r3, [r7, #44]
 313 013a 1344     		add	r3, r3, r2
 314 013c BB62     		str	r3, [r7, #40]
  60:fft.c         ****             t1 = u1 * x[i1] - u2 * y[i1];
 315              		.loc 1 60 0 discriminator 3
 316 013e BB6A     		ldr	r3, [r7, #40]
 317 0140 DB00     		lsls	r3, r3, #3
 318 0142 7A68     		ldr	r2, [r7, #4]
 319 0144 1344     		add	r3, r3, r2
 320 0146 D3E90023 		ldrd	r2, [r3]
 321 014a 1046     		mov	r0, r2
 322 014c 1946     		mov	r1, r3
 323 014e D7E91423 		ldrd	r2, [r7, #80]
 324 0152 FFF7FEFF 		bl	__aeabi_dmul
 325 0156 0246     		mov	r2, r0
 326 0158 0B46     		mov	r3, r1
 327 015a 1446     		mov	r4, r2
 328 015c 1D46     		mov	r5, r3
 329 015e BB6A     		ldr	r3, [r7, #40]
 330 0160 DB00     		lsls	r3, r3, #3
 331 0162 3A68     		ldr	r2, [r7]
 332 0164 1344     		add	r3, r3, r2
 333 0166 D3E90023 		ldrd	r2, [r3]
 334 016a 1046     		mov	r0, r2
 335 016c 1946     		mov	r1, r3
 336 016e D7E91223 		ldrd	r2, [r7, #72]
 337 0172 FFF7FEFF 		bl	__aeabi_dmul
 338 0176 0246     		mov	r2, r0
 339 0178 0B46     		mov	r3, r1
 340 017a 2046     		mov	r0, r4
 341 017c 2946     		mov	r1, r5
 342 017e FFF7FEFF 		bl	__aeabi_dsub
 343 0182 0246     		mov	r2, r0
 344 0184 0B46     		mov	r3, r1
 345 0186 C7E90823 		strd	r2, [r7, #32]
  61:fft.c         ****             t2 = u1 * y[i1] + u2 * x[i1];
 346              		.loc 1 61 0 discriminator 3
 347 018a BB6A     		ldr	r3, [r7, #40]
 348 018c DB00     		lsls	r3, r3, #3
 349 018e 3A68     		ldr	r2, [r7]
 350 0190 1344     		add	r3, r3, r2
 351 0192 D3E90023 		ldrd	r2, [r3]
 352 0196 1046     		mov	r0, r2
ARM GAS  C:\Users\Soren\AppData\Local\Temp\ccRAs7tI.s 			page 9


 353 0198 1946     		mov	r1, r3
 354 019a D7E91423 		ldrd	r2, [r7, #80]
 355 019e FFF7FEFF 		bl	__aeabi_dmul
 356 01a2 0246     		mov	r2, r0
 357 01a4 0B46     		mov	r3, r1
 358 01a6 1446     		mov	r4, r2
 359 01a8 1D46     		mov	r5, r3
 360 01aa BB6A     		ldr	r3, [r7, #40]
 361 01ac DB00     		lsls	r3, r3, #3
 362 01ae 7A68     		ldr	r2, [r7, #4]
 363 01b0 1344     		add	r3, r3, r2
 364 01b2 D3E90023 		ldrd	r2, [r3]
 365 01b6 1046     		mov	r0, r2
 366 01b8 1946     		mov	r1, r3
 367 01ba D7E91223 		ldrd	r2, [r7, #72]
 368 01be FFF7FEFF 		bl	__aeabi_dmul
 369 01c2 0246     		mov	r2, r0
 370 01c4 0B46     		mov	r3, r1
 371 01c6 2046     		mov	r0, r4
 372 01c8 2946     		mov	r1, r5
 373 01ca FFF7FEFF 		bl	__aeabi_dadd
 374 01ce 0246     		mov	r2, r0
 375 01d0 0B46     		mov	r3, r1
 376 01d2 C7E90623 		strd	r2, [r7, #24]
  62:fft.c         ****             x[i1] = x[i] - t1; 
 377              		.loc 1 62 0 discriminator 3
 378 01d6 BB6A     		ldr	r3, [r7, #40]
 379 01d8 DB00     		lsls	r3, r3, #3
 380 01da 7A68     		ldr	r2, [r7, #4]
 381 01dc D418     		adds	r4, r2, r3
 382 01de BB6F     		ldr	r3, [r7, #120]
 383 01e0 DB00     		lsls	r3, r3, #3
 384 01e2 7A68     		ldr	r2, [r7, #4]
 385 01e4 1344     		add	r3, r3, r2
 386 01e6 D3E90023 		ldrd	r2, [r3]
 387 01ea 1046     		mov	r0, r2
 388 01ec 1946     		mov	r1, r3
 389 01ee D7E90823 		ldrd	r2, [r7, #32]
 390 01f2 FFF7FEFF 		bl	__aeabi_dsub
 391 01f6 0246     		mov	r2, r0
 392 01f8 0B46     		mov	r3, r1
 393 01fa C4E90023 		strd	r2, [r4]
  63:fft.c         ****             y[i1] = y[i] - t2;
 394              		.loc 1 63 0 discriminator 3
 395 01fe BB6A     		ldr	r3, [r7, #40]
 396 0200 DB00     		lsls	r3, r3, #3
 397 0202 3A68     		ldr	r2, [r7]
 398 0204 D418     		adds	r4, r2, r3
 399 0206 BB6F     		ldr	r3, [r7, #120]
 400 0208 DB00     		lsls	r3, r3, #3
 401 020a 3A68     		ldr	r2, [r7]
 402 020c 1344     		add	r3, r3, r2
 403 020e D3E90023 		ldrd	r2, [r3]
 404 0212 1046     		mov	r0, r2
 405 0214 1946     		mov	r1, r3
 406 0216 D7E90623 		ldrd	r2, [r7, #24]
 407 021a FFF7FEFF 		bl	__aeabi_dsub
ARM GAS  C:\Users\Soren\AppData\Local\Temp\ccRAs7tI.s 			page 10


 408 021e 0246     		mov	r2, r0
 409 0220 0B46     		mov	r3, r1
 410 0222 C4E90023 		strd	r2, [r4]
  64:fft.c         ****             x[i] += t1;
 411              		.loc 1 64 0 discriminator 3
 412 0226 BB6F     		ldr	r3, [r7, #120]
 413 0228 DB00     		lsls	r3, r3, #3
 414 022a 7A68     		ldr	r2, [r7, #4]
 415 022c D418     		adds	r4, r2, r3
 416 022e BB6F     		ldr	r3, [r7, #120]
 417 0230 DB00     		lsls	r3, r3, #3
 418 0232 7A68     		ldr	r2, [r7, #4]
 419 0234 1344     		add	r3, r3, r2
 420 0236 D3E90023 		ldrd	r2, [r3]
 421 023a 1046     		mov	r0, r2
 422 023c 1946     		mov	r1, r3
 423 023e D7E90823 		ldrd	r2, [r7, #32]
 424 0242 FFF7FEFF 		bl	__aeabi_dadd
 425 0246 0246     		mov	r2, r0
 426 0248 0B46     		mov	r3, r1
 427 024a C4E90023 		strd	r2, [r4]
  65:fft.c         ****             y[i] += t2;
 428              		.loc 1 65 0 discriminator 3
 429 024e BB6F     		ldr	r3, [r7, #120]
 430 0250 DB00     		lsls	r3, r3, #3
 431 0252 3A68     		ldr	r2, [r7]
 432 0254 D418     		adds	r4, r2, r3
 433 0256 BB6F     		ldr	r3, [r7, #120]
 434 0258 DB00     		lsls	r3, r3, #3
 435 025a 3A68     		ldr	r2, [r7]
 436 025c 1344     		add	r3, r3, r2
 437 025e D3E90023 		ldrd	r2, [r3]
 438 0262 1046     		mov	r0, r2
 439 0264 1946     		mov	r1, r3
 440 0266 D7E90623 		ldrd	r2, [r7, #24]
 441 026a FFF7FEFF 		bl	__aeabi_dadd
 442 026e 0246     		mov	r2, r0
 443 0270 0B46     		mov	r3, r1
 444 0272 C4E90023 		strd	r2, [r4]
  58:fft.c         ****             i1 = i + l1;
 445              		.loc 1 58 0 discriminator 3
 446 0276 BA6F     		ldr	r2, [r7, #120]
 447 0278 BB6E     		ldr	r3, [r7, #104]
 448 027a 1344     		add	r3, r3, r2
 449 027c BB67     		str	r3, [r7, #120]
 450              	.L11:
  58:fft.c         ****             i1 = i + l1;
 451              		.loc 1 58 0 is_stmt 0 discriminator 1
 452 027e BA6F     		ldr	r2, [r7, #120]
 453 0280 FB6F     		ldr	r3, [r7, #124]
 454 0282 9A42     		cmp	r2, r3
 455 0284 FFF657AF 		blt	.L12
  66:fft.c         ****          }
  67:fft.c         ****          z =  u1 * c1 - u2 * c2;
 456              		.loc 1 67 0 is_stmt 1 discriminator 2
 457 0288 D7E91401 		ldrd	r0, [r7, #80]
 458 028c D7E91823 		ldrd	r2, [r7, #96]
ARM GAS  C:\Users\Soren\AppData\Local\Temp\ccRAs7tI.s 			page 11


 459 0290 FFF7FEFF 		bl	__aeabi_dmul
 460 0294 0246     		mov	r2, r0
 461 0296 0B46     		mov	r3, r1
 462 0298 1446     		mov	r4, r2
 463 029a 1D46     		mov	r5, r3
 464 029c D7E91201 		ldrd	r0, [r7, #72]
 465 02a0 D7E91623 		ldrd	r2, [r7, #88]
 466 02a4 FFF7FEFF 		bl	__aeabi_dmul
 467 02a8 0246     		mov	r2, r0
 468 02aa 0B46     		mov	r3, r1
 469 02ac 2046     		mov	r0, r4
 470 02ae 2946     		mov	r1, r5
 471 02b0 FFF7FEFF 		bl	__aeabi_dsub
 472 02b4 0246     		mov	r2, r0
 473 02b6 0B46     		mov	r3, r1
 474 02b8 C7E90423 		strd	r2, [r7, #16]
  68:fft.c         ****          u2 = u1 * c2 + u2 * c1;
 475              		.loc 1 68 0 discriminator 2
 476 02bc D7E91401 		ldrd	r0, [r7, #80]
 477 02c0 D7E91623 		ldrd	r2, [r7, #88]
 478 02c4 FFF7FEFF 		bl	__aeabi_dmul
 479 02c8 0246     		mov	r2, r0
 480 02ca 0B46     		mov	r3, r1
 481 02cc 1446     		mov	r4, r2
 482 02ce 1D46     		mov	r5, r3
 483 02d0 D7E91201 		ldrd	r0, [r7, #72]
 484 02d4 D7E91823 		ldrd	r2, [r7, #96]
 485 02d8 FFF7FEFF 		bl	__aeabi_dmul
 486 02dc 0246     		mov	r2, r0
 487 02de 0B46     		mov	r3, r1
 488 02e0 2046     		mov	r0, r4
 489 02e2 2946     		mov	r1, r5
 490 02e4 FFF7FEFF 		bl	__aeabi_dadd
 491 02e8 0246     		mov	r2, r0
 492 02ea 0B46     		mov	r3, r1
 493 02ec C7E91223 		strd	r2, [r7, #72]
  69:fft.c         ****          u1 = z;
 494              		.loc 1 69 0 discriminator 2
 495 02f0 D7E90423 		ldrd	r2, [r7, #16]
 496 02f4 C7E91423 		strd	r2, [r7, #80]
  57:fft.c         ****          for (i=j;i<n;i+=l2) {
 497              		.loc 1 57 0 discriminator 2
 498 02f8 7B6F     		ldr	r3, [r7, #116]
 499 02fa 0133     		adds	r3, r3, #1
 500 02fc 7B67     		str	r3, [r7, #116]
 501              	.L10:
  57:fft.c         ****          for (i=j;i<n;i+=l2) {
 502              		.loc 1 57 0 is_stmt 0 discriminator 1
 503 02fe 7A6F     		ldr	r2, [r7, #116]
 504 0300 FB6A     		ldr	r3, [r7, #44]
 505 0302 9A42     		cmp	r2, r3
 506 0304 FFF614AF 		blt	.L13
  70:fft.c         ****       }
  71:fft.c         ****       c2 = sqrt((1.0 - c1) / 2.0);
 507              		.loc 1 71 0 is_stmt 1
 508 0308 4FF00000 		mov	r0, #0
 509 030c 2249     		ldr	r1, .L18+4
ARM GAS  C:\Users\Soren\AppData\Local\Temp\ccRAs7tI.s 			page 12


 510 030e D7E91823 		ldrd	r2, [r7, #96]
 511 0312 FFF7FEFF 		bl	__aeabi_dsub
 512 0316 0246     		mov	r2, r0
 513 0318 0B46     		mov	r3, r1
 514 031a 1046     		mov	r0, r2
 515 031c 1946     		mov	r1, r3
 516 031e 4FF00002 		mov	r2, #0
 517 0322 4FF08043 		mov	r3, #1073741824
 518 0326 FFF7FEFF 		bl	__aeabi_ddiv
 519 032a 0246     		mov	r2, r0
 520 032c 0B46     		mov	r3, r1
 521 032e 1046     		mov	r0, r2
 522 0330 1946     		mov	r1, r3
 523 0332 FFF7FEFF 		bl	sqrt
 524 0336 C7E91601 		strd	r0, [r7, #88]
  72:fft.c         ****       if (dir == 1) 
 525              		.loc 1 72 0
 526 033a FB68     		ldr	r3, [r7, #12]
 527 033c 012B     		cmp	r3, #1
 528 033e 05D1     		bne	.L14
  73:fft.c         ****          c2 = -c2;
 529              		.loc 1 73 0
 530 0340 BB6D     		ldr	r3, [r7, #88]
 531 0342 BB65     		str	r3, [r7, #88]
 532 0344 FB6D     		ldr	r3, [r7, #92]
 533 0346 83F00043 		eor	r3, r3, #-2147483648
 534 034a FB65     		str	r3, [r7, #92]
 535              	.L14:
  74:fft.c         ****       c1 = sqrt((1.0 + c1) / 2.0);
 536              		.loc 1 74 0 discriminator 2
 537 034c D7E91801 		ldrd	r0, [r7, #96]
 538 0350 4FF00002 		mov	r2, #0
 539 0354 104B     		ldr	r3, .L18+4
 540 0356 FFF7FEFF 		bl	__aeabi_dadd
 541 035a 0246     		mov	r2, r0
 542 035c 0B46     		mov	r3, r1
 543 035e 1046     		mov	r0, r2
 544 0360 1946     		mov	r1, r3
 545 0362 4FF00002 		mov	r2, #0
 546 0366 4FF08043 		mov	r3, #1073741824
 547 036a FFF7FEFF 		bl	__aeabi_ddiv
 548 036e 0246     		mov	r2, r0
 549 0370 0B46     		mov	r3, r1
 550 0372 1046     		mov	r0, r2
 551 0374 1946     		mov	r1, r3
 552 0376 FFF7FEFF 		bl	sqrt
 553 037a C7E91801 		strd	r0, [r7, #96]
  52:fft.c         ****       l1 = l2;
 554              		.loc 1 52 0 discriminator 2
 555 037e FB6E     		ldr	r3, [r7, #108]
 556 0380 0133     		adds	r3, r3, #1
 557 0382 FB66     		str	r3, [r7, #108]
 558              	.L9:
  52:fft.c         ****       l1 = l2;
 559              		.loc 1 52 0 is_stmt 0 discriminator 1
 560 0384 FA6E     		ldr	r2, [r7, #108]
 561 0386 BB68     		ldr	r3, [r7, #8]
ARM GAS  C:\Users\Soren\AppData\Local\Temp\ccRAs7tI.s 			page 13


 562 0388 9A42     		cmp	r2, r3
 563 038a FFF6BEAE 		blt	.L15
  75:fft.c         ****    }
  76:fft.c         **** 
  77:fft.c         ****    /* Scaling factor for forward transform */
  78:fft.c         **** //   if (dir == 1) {
  79:fft.c         **** //      for (i=0;i<n;i++) {
  80:fft.c         **** //         x[i] /= n;
  81:fft.c         **** //         y[i] /= n;
  82:fft.c         **** //      }
  83:fft.c         **** //   }
  84:fft.c         ****    
  85:fft.c         ****    for(i=0;i<N_points;i++)
 564              		.loc 1 85 0 is_stmt 1
 565 038e 0023     		movs	r3, #0
 566 0390 BB67     		str	r3, [r7, #120]
 567 0392 4AE0     		b	.L16
 568              	.L19:
 569              		.align	2
 570              	.L18:
 571 0394 0000F0BF 		.word	-1074790400
 572 0398 0000F03F 		.word	1072693248
 573              	.L17:
  86:fft.c         ****    {
  87:fft.c         ****     /* Absolute value */
  88:fft.c         ****    u[i]=2*sqrt((x[i]*x[i])+(y[i]*y[i]))/N_points;  
 574              		.loc 1 88 0 discriminator 3
 575 039c BB6F     		ldr	r3, [r7, #120]
 576 039e DB00     		lsls	r3, r3, #3
 577 03a0 D7F89820 		ldr	r2, [r7, #152]
 578 03a4 D418     		adds	r4, r2, r3
 579 03a6 BB6F     		ldr	r3, [r7, #120]
 580 03a8 DB00     		lsls	r3, r3, #3
 581 03aa 7A68     		ldr	r2, [r7, #4]
 582 03ac 1344     		add	r3, r3, r2
 583 03ae D3E90001 		ldrd	r0, [r3]
 584 03b2 BB6F     		ldr	r3, [r7, #120]
 585 03b4 DB00     		lsls	r3, r3, #3
 586 03b6 7A68     		ldr	r2, [r7, #4]
 587 03b8 1344     		add	r3, r3, r2
 588 03ba D3E90023 		ldrd	r2, [r3]
 589 03be FFF7FEFF 		bl	__aeabi_dmul
 590 03c2 0246     		mov	r2, r0
 591 03c4 0B46     		mov	r3, r1
 592 03c6 9046     		mov	r8, r2
 593 03c8 9946     		mov	r9, r3
 594 03ca BB6F     		ldr	r3, [r7, #120]
 595 03cc DB00     		lsls	r3, r3, #3
 596 03ce 3A68     		ldr	r2, [r7]
 597 03d0 1344     		add	r3, r3, r2
 598 03d2 D3E90001 		ldrd	r0, [r3]
 599 03d6 BB6F     		ldr	r3, [r7, #120]
 600 03d8 DB00     		lsls	r3, r3, #3
 601 03da 3A68     		ldr	r2, [r7]
 602 03dc 1344     		add	r3, r3, r2
 603 03de D3E90023 		ldrd	r2, [r3]
 604 03e2 FFF7FEFF 		bl	__aeabi_dmul
ARM GAS  C:\Users\Soren\AppData\Local\Temp\ccRAs7tI.s 			page 14


 605 03e6 0246     		mov	r2, r0
 606 03e8 0B46     		mov	r3, r1
 607 03ea 4046     		mov	r0, r8
 608 03ec 4946     		mov	r1, r9
 609 03ee FFF7FEFF 		bl	__aeabi_dadd
 610 03f2 0246     		mov	r2, r0
 611 03f4 0B46     		mov	r3, r1
 612 03f6 1046     		mov	r0, r2
 613 03f8 1946     		mov	r1, r3
 614 03fa FFF7FEFF 		bl	sqrt
 615 03fe 0246     		mov	r2, r0
 616 0400 0B46     		mov	r3, r1
 617 0402 1046     		mov	r0, r2
 618 0404 1946     		mov	r1, r3
 619 0406 FFF7FEFF 		bl	__aeabi_dadd
 620 040a 0246     		mov	r2, r0
 621 040c 0B46     		mov	r3, r1
 622 040e 1046     		mov	r0, r2
 623 0410 1946     		mov	r1, r3
 624 0412 4FF00002 		mov	r2, #0
 625 0416 084B     		ldr	r3, .L20
 626 0418 FFF7FEFF 		bl	__aeabi_ddiv
 627 041c 0246     		mov	r2, r0
 628 041e 0B46     		mov	r3, r1
 629 0420 C4E90023 		strd	r2, [r4]
  85:fft.c         ****    {
 630              		.loc 1 85 0 discriminator 3
 631 0424 BB6F     		ldr	r3, [r7, #120]
 632 0426 0133     		adds	r3, r3, #1
 633 0428 BB67     		str	r3, [r7, #120]
 634              	.L16:
  85:fft.c         ****    {
 635              		.loc 1 85 0 is_stmt 0 discriminator 1
 636 042a BB6F     		ldr	r3, [r7, #120]
 637 042c 3F2B     		cmp	r3, #63
 638 042e B5DD     		ble	.L17
  89:fft.c         ****    }
  90:fft.c         **** }
 639              		.loc 1 90 0 is_stmt 1
 640 0430 8037     		adds	r7, r7, #128
 641              		.cfi_def_cfa_offset 24
 642 0432 BD46     		mov	sp, r7
 643              		.cfi_def_cfa_register 13
 644              		@ sp needed
 645 0434 BDE8B083 		pop	{r4, r5, r7, r8, r9, pc}
 646              	.L21:
 647              		.align	2
 648              	.L20:
 649 0438 00005040 		.word	1078984704
 650              		.cfi_endproc
 651              	.LFE63:
 652              		.size	FFT, .-FFT
 653              		.section	.text.calculate_50Hz_Amp,"ax",%progbits
 654              		.align	2
 655              		.global	calculate_50Hz_Amp
 656              		.thumb
 657              		.thumb_func
ARM GAS  C:\Users\Soren\AppData\Local\Temp\ccRAs7tI.s 			page 15


 658              		.type	calculate_50Hz_Amp, %function
 659              	calculate_50Hz_Amp:
 660              	.LFB64:
  91:fft.c         **** 
  92:fft.c         **** double calculate_50Hz_Amp(double *u)
  93:fft.c         **** {
 661              		.loc 1 93 0
 662              		.cfi_startproc
 663              		@ args = 0, pretend = 0, frame = 8
 664              		@ frame_needed = 1, uses_anonymous_args = 0
 665              		@ link register save eliminated.
 666 0000 80B4     		push	{r7}
 667              		.cfi_def_cfa_offset 4
 668              		.cfi_offset 7, -4
 669 0002 83B0     		sub	sp, sp, #12
 670              		.cfi_def_cfa_offset 16
 671 0004 00AF     		add	r7, sp, #0
 672              		.cfi_def_cfa_register 7
 673 0006 7860     		str	r0, [r7, #4]
  94:fft.c         **** //    double fsample = 1067;  
  95:fft.c         **** //    double delta_f_bin = fsample/N_points;
  96:fft.c         **** //    int bin_number = frekvens/delta_f_bin;
  97:fft.c         ****     
  98:fft.c         ****     return u[1];
 674              		.loc 1 98 0
 675 0008 7B68     		ldr	r3, [r7, #4]
 676 000a D3E90223 		ldrd	r2, [r3, #8]
  99:fft.c         ****     
 100:fft.c         ****     
 101:fft.c         **** }
 677              		.loc 1 101 0
 678 000e 1046     		mov	r0, r2
 679 0010 1946     		mov	r1, r3
 680 0012 0C37     		adds	r7, r7, #12
 681              		.cfi_def_cfa_offset 4
 682 0014 BD46     		mov	sp, r7
 683              		.cfi_def_cfa_register 13
 684              		@ sp needed
 685 0016 5DF8047B 		ldr	r7, [sp], #4
 686              		.cfi_restore 7
 687              		.cfi_def_cfa_offset 0
 688 001a 7047     		bx	lr
 689              		.cfi_endproc
 690              	.LFE64:
 691              		.size	calculate_50Hz_Amp, .-calculate_50Hz_Amp
 692              		.section	.text.calculate_50Hz_RMS,"ax",%progbits
 693              		.align	2
 694              		.global	calculate_50Hz_RMS
 695              		.thumb
 696              		.thumb_func
 697              		.type	calculate_50Hz_RMS, %function
 698              	calculate_50Hz_RMS:
 699              	.LFB65:
 102:fft.c         **** 
 103:fft.c         **** double calculate_50Hz_RMS(double *u)
 104:fft.c         **** {
 700              		.loc 1 104 0
ARM GAS  C:\Users\Soren\AppData\Local\Temp\ccRAs7tI.s 			page 16


 701              		.cfi_startproc
 702              		@ args = 0, pretend = 0, frame = 8
 703              		@ frame_needed = 1, uses_anonymous_args = 0
 704 0000 80B5     		push	{r7, lr}
 705              		.cfi_def_cfa_offset 8
 706              		.cfi_offset 7, -8
 707              		.cfi_offset 14, -4
 708 0002 82B0     		sub	sp, sp, #8
 709              		.cfi_def_cfa_offset 16
 710 0004 00AF     		add	r7, sp, #0
 711              		.cfi_def_cfa_register 7
 712 0006 7860     		str	r0, [r7, #4]
 105:fft.c         ****     return u[1]/sqrt(2);  
 713              		.loc 1 105 0
 714 0008 7B68     		ldr	r3, [r7, #4]
 715 000a 0833     		adds	r3, r3, #8
 716 000c D3E90023 		ldrd	r2, [r3]
 717 0010 1046     		mov	r0, r2
 718 0012 1946     		mov	r1, r3
 719 0014 06A3     		adr	r3, .L26
 720 0016 D3E90023 		ldrd	r2, [r3]
 721 001a FFF7FEFF 		bl	__aeabi_ddiv
 722 001e 0246     		mov	r2, r0
 723 0020 0B46     		mov	r3, r1
 106:fft.c         **** }
 724              		.loc 1 106 0
 725 0022 1046     		mov	r0, r2
 726 0024 1946     		mov	r1, r3
 727 0026 0837     		adds	r7, r7, #8
 728              		.cfi_def_cfa_offset 8
 729 0028 BD46     		mov	sp, r7
 730              		.cfi_def_cfa_register 13
 731              		@ sp needed
 732 002a 80BD     		pop	{r7, pc}
 733              	.L27:
 734 002c AFF30080 		.align	3
 735              	.L26:
 736 0030 CD3B7F66 		.word	1719614413
 737 0034 9EA0F63F 		.word	1073127582
 738              		.cfi_endproc
 739              	.LFE65:
 740              		.size	calculate_50Hz_RMS, .-calculate_50Hz_RMS
 741              		.section	.text.calculate_50Hz_PF,"ax",%progbits
 742              		.align	2
 743              		.global	calculate_50Hz_PF
 744              		.thumb
 745              		.thumb_func
 746              		.type	calculate_50Hz_PF, %function
 747              	calculate_50Hz_PF:
 748              	.LFB66:
 107:fft.c         **** 
 108:fft.c         **** double calculate_50Hz_PF()
 109:fft.c         **** {
 749              		.loc 1 109 0
 750              		.cfi_startproc
 751              		@ args = 0, pretend = 0, frame = 16
 752              		@ frame_needed = 1, uses_anonymous_args = 0
ARM GAS  C:\Users\Soren\AppData\Local\Temp\ccRAs7tI.s 			page 17


 753 0000 80B5     		push	{r7, lr}
 754              		.cfi_def_cfa_offset 8
 755              		.cfi_offset 7, -8
 756              		.cfi_offset 14, -4
 757 0002 84B0     		sub	sp, sp, #16
 758              		.cfi_def_cfa_offset 24
 759 0004 00AF     		add	r7, sp, #0
 760              		.cfi_def_cfa_register 7
 110:fft.c         ****     double angle_Volt = atan(Im_volt[1]/Re_volt[1]);
 761              		.loc 1 110 0
 762 0006 194B     		ldr	r3, .L30
 763 0008 D3E90201 		ldrd	r0, [r3, #8]
 764 000c 184B     		ldr	r3, .L30+4
 765 000e D3E90223 		ldrd	r2, [r3, #8]
 766 0012 FFF7FEFF 		bl	__aeabi_ddiv
 767 0016 0246     		mov	r2, r0
 768 0018 0B46     		mov	r3, r1
 769 001a 1046     		mov	r0, r2
 770 001c 1946     		mov	r1, r3
 771 001e FFF7FEFF 		bl	atan
 772 0022 C7E90201 		strd	r0, [r7, #8]
 111:fft.c         ****     double angle_Ampere = atan(Im_Ampere[1]/Re_Ampere[1]);
 773              		.loc 1 111 0
 774 0026 134B     		ldr	r3, .L30+8
 775 0028 D3E90201 		ldrd	r0, [r3, #8]
 776 002c 124B     		ldr	r3, .L30+12
 777 002e D3E90223 		ldrd	r2, [r3, #8]
 778 0032 FFF7FEFF 		bl	__aeabi_ddiv
 779 0036 0246     		mov	r2, r0
 780 0038 0B46     		mov	r3, r1
 781 003a 1046     		mov	r0, r2
 782 003c 1946     		mov	r1, r3
 783 003e FFF7FEFF 		bl	atan
 784 0042 C7E90001 		strd	r0, [r7]
 112:fft.c         ****     
 113:fft.c         ****     return cos(angle_Ampere-angle_Volt);
 785              		.loc 1 113 0
 786 0046 D7E90001 		ldrd	r0, [r7]
 787 004a D7E90223 		ldrd	r2, [r7, #8]
 788 004e FFF7FEFF 		bl	__aeabi_dsub
 789 0052 0246     		mov	r2, r0
 790 0054 0B46     		mov	r3, r1
 791 0056 1046     		mov	r0, r2
 792 0058 1946     		mov	r1, r3
 793 005a FFF7FEFF 		bl	cos
 794 005e 0246     		mov	r2, r0
 795 0060 0B46     		mov	r3, r1
 114:fft.c         ****     
 115:fft.c         **** }
 796              		.loc 1 115 0
 797 0062 1046     		mov	r0, r2
 798 0064 1946     		mov	r1, r3
 799 0066 1037     		adds	r7, r7, #16
 800              		.cfi_def_cfa_offset 8
 801 0068 BD46     		mov	sp, r7
 802              		.cfi_def_cfa_register 13
 803              		@ sp needed
ARM GAS  C:\Users\Soren\AppData\Local\Temp\ccRAs7tI.s 			page 18


 804 006a 80BD     		pop	{r7, pc}
 805              	.L31:
 806              		.align	2
 807              	.L30:
 808 006c 00000000 		.word	Im_volt
 809 0070 00000000 		.word	Re_volt
 810 0074 00000000 		.word	Im_Ampere
 811 0078 00000000 		.word	Re_Ampere
 812              		.cfi_endproc
 813              	.LFE66:
 814              		.size	calculate_50Hz_PF, .-calculate_50Hz_PF
 815              		.section	.text.calculate_THD,"ax",%progbits
 816              		.align	2
 817              		.global	calculate_THD
 818              		.thumb
 819              		.thumb_func
 820              		.type	calculate_THD, %function
 821              	calculate_THD:
 822              	.LFB67:
 116:fft.c         **** 
 117:fft.c         **** double calculate_THD()
 118:fft.c         **** {
 823              		.loc 1 118 0
 824              		.cfi_startproc
 825              		@ args = 0, pretend = 0, frame = 0
 826              		@ frame_needed = 1, uses_anonymous_args = 0
 827 0000 B0B5     		push	{r4, r5, r7, lr}
 828              		.cfi_def_cfa_offset 16
 829              		.cfi_offset 4, -16
 830              		.cfi_offset 5, -12
 831              		.cfi_offset 7, -8
 832              		.cfi_offset 14, -4
 833 0002 00AF     		add	r7, sp, #0
 834              		.cfi_def_cfa_register 7
 119:fft.c         ****    return sqrt(Abs_volt[2]*Abs_volt[2]+Abs_volt[3]*Abs_volt[3]+Abs_volt[4]*Abs_volt[4]+Abs_volt[5]*
 835              		.loc 1 119 0
 836 0004 264B     		ldr	r3, .L34
 837 0006 D3E90401 		ldrd	r0, [r3, #16]
 838 000a 254B     		ldr	r3, .L34
 839 000c D3E90423 		ldrd	r2, [r3, #16]
 840 0010 FFF7FEFF 		bl	__aeabi_dmul
 841 0014 0246     		mov	r2, r0
 842 0016 0B46     		mov	r3, r1
 843 0018 1446     		mov	r4, r2
 844 001a 1D46     		mov	r5, r3
 845 001c 204B     		ldr	r3, .L34
 846 001e D3E90601 		ldrd	r0, [r3, #24]
 847 0022 1F4B     		ldr	r3, .L34
 848 0024 D3E90623 		ldrd	r2, [r3, #24]
 849 0028 FFF7FEFF 		bl	__aeabi_dmul
 850 002c 0246     		mov	r2, r0
 851 002e 0B46     		mov	r3, r1
 852 0030 2046     		mov	r0, r4
 853 0032 2946     		mov	r1, r5
 854 0034 FFF7FEFF 		bl	__aeabi_dadd
 855 0038 0246     		mov	r2, r0
 856 003a 0B46     		mov	r3, r1
ARM GAS  C:\Users\Soren\AppData\Local\Temp\ccRAs7tI.s 			page 19


 857 003c 1446     		mov	r4, r2
 858 003e 1D46     		mov	r5, r3
 859 0040 174B     		ldr	r3, .L34
 860 0042 D3E90801 		ldrd	r0, [r3, #32]
 861 0046 164B     		ldr	r3, .L34
 862 0048 D3E90823 		ldrd	r2, [r3, #32]
 863 004c FFF7FEFF 		bl	__aeabi_dmul
 864 0050 0246     		mov	r2, r0
 865 0052 0B46     		mov	r3, r1
 866 0054 2046     		mov	r0, r4
 867 0056 2946     		mov	r1, r5
 868 0058 FFF7FEFF 		bl	__aeabi_dadd
 869 005c 0246     		mov	r2, r0
 870 005e 0B46     		mov	r3, r1
 871 0060 1446     		mov	r4, r2
 872 0062 1D46     		mov	r5, r3
 873 0064 0E4B     		ldr	r3, .L34
 874 0066 D3E90A01 		ldrd	r0, [r3, #40]
 875 006a 0D4B     		ldr	r3, .L34
 876 006c D3E90A23 		ldrd	r2, [r3, #40]
 877 0070 FFF7FEFF 		bl	__aeabi_dmul
 878 0074 0246     		mov	r2, r0
 879 0076 0B46     		mov	r3, r1
 880 0078 2046     		mov	r0, r4
 881 007a 2946     		mov	r1, r5
 882 007c FFF7FEFF 		bl	__aeabi_dadd
 883 0080 0246     		mov	r2, r0
 884 0082 0B46     		mov	r3, r1
 885 0084 1046     		mov	r0, r2
 886 0086 1946     		mov	r1, r3
 887 0088 FFF7FEFF 		bl	sqrt
 888 008c 044B     		ldr	r3, .L34
 889 008e D3E90223 		ldrd	r2, [r3, #8]
 890 0092 FFF7FEFF 		bl	__aeabi_ddiv
 891 0096 0246     		mov	r2, r0
 892 0098 0B46     		mov	r3, r1
 120:fft.c         **** }...
 893              		.loc 1 120 0
 894 009a 1046     		mov	r0, r2
 895 009c 1946     		mov	r1, r3
 896 009e B0BD     		pop	{r4, r5, r7, pc}
 897              	.L35:
 898              		.align	2
 899              	.L34:
 900 00a0 00000000 		.word	Abs_volt
 901              		.cfi_endproc
 902              	.LFE67:
 903              		.size	calculate_THD, .-calculate_THD
 904              		.text
 905              	.Letext0:
 906              		.file 2 "c:\\program files (x86)\\cypress\\psoc creator\\4.0\\psoc creator\\import\\gnu\\arm\\4.9.
 907              		.file 3 "c:\\program files (x86)\\cypress\\psoc creator\\4.0\\psoc creator\\import\\gnu\\arm\\4.9.
 908              		.file 4 "Generated_Source\\PSoC5/core_cm3.h"
 909              		.file 5 "GlobalVariables.h"