ARM GAS  C:\Users\Soren\AppData\Local\Temp\ccvXuKbv.s 			page 1


   1              		.syntax unified
   2              		.cpu cortex-m3
   3              		.fpu softvfp
   4              		.eabi_attribute 20, 1
   5              		.eabi_attribute 21, 1
   6              		.eabi_attribute 23, 3
   7              		.eabi_attribute 24, 1
   8              		.eabi_attribute 25, 1
   9              		.eabi_attribute 26, 1
  10              		.eabi_attribute 30, 6
  11              		.eabi_attribute 34, 1
  12              		.eabi_attribute 18, 4
  13              		.thumb
  14              		.file	"sample.c"
  15              		.text
  16              	.Ltext0:
  17              		.cfi_sections	.debug_frame
  18              		.global	Abs_volt
  19              		.bss
  20              		.align	3
  21              		.type	Abs_volt, %object
  22              		.size	Abs_volt, 512
  23              	Abs_volt:
  24 0000 00000000 		.space	512
  24      00000000 
  24      00000000 
  24      00000000 
  24      00000000 
  25              		.global	Re_volt
  26              		.align	3
  27              		.type	Re_volt, %object
  28              		.size	Re_volt, 512
  29              	Re_volt:
  30 0200 00000000 		.space	512
  30      00000000 
  30      00000000 
  30      00000000 
  30      00000000 
  31              		.global	Im_volt
  32              		.align	3
  33              		.type	Im_volt, %object
  34              		.size	Im_volt, 512
  35              	Im_volt:
  36 0400 00000000 		.space	512
  36      00000000 
  36      00000000 
  36      00000000 
  36      00000000 
  37              		.global	Abs_Ampere
  38              		.align	3
  39              		.type	Abs_Ampere, %object
  40              		.size	Abs_Ampere, 512
  41              	Abs_Ampere:
  42 0600 00000000 		.space	512
  42      00000000 
  42      00000000 
  42      00000000 
ARM GAS  C:\Users\Soren\AppData\Local\Temp\ccvXuKbv.s 			page 2


  42      00000000 
  43              		.global	Re_Ampere
  44              		.align	3
  45              		.type	Re_Ampere, %object
  46              		.size	Re_Ampere, 512
  47              	Re_Ampere:
  48 0800 00000000 		.space	512
  48      00000000 
  48      00000000 
  48      00000000 
  48      00000000 
  49              		.global	Im_Ampere
  50              		.align	3
  51              		.type	Im_Ampere, %object
  52              		.size	Im_Ampere, 512
  53              	Im_Ampere:
  54 0a00 00000000 		.space	512
  54      00000000 
  54      00000000 
  54      00000000 
  54      00000000 
  55              		.global	SampleArrayU
  56              		.align	2
  57              		.type	SampleArrayU, %object
  58              		.size	SampleArrayU, 256
  59              	SampleArrayU:
  60 0c00 00000000 		.space	256
  60      00000000 
  60      00000000 
  60      00000000 
  60      00000000 
  61              		.global	SampleArrayI
  62              		.align	2
  63              		.type	SampleArrayI, %object
  64              		.size	SampleArrayI, 256
  65              	SampleArrayI:
  66 0d00 00000000 		.space	256
  66      00000000 
  66      00000000 
  66      00000000 
  66      00000000 
  67              		.global	p
  68              		.align	2
  69              		.type	p, %object
  70              		.size	p, 4
  71              	p:
  72 0e00 00000000 		.space	4
  73              		.global	Amp_Volt
  74 0e04 00000000 		.align	3
  75              		.type	Amp_Volt, %object
  76              		.size	Amp_Volt, 8
  77              	Amp_Volt:
  78 0e08 00000000 		.space	8
  78      00000000 
  79              		.global	RMS_Volt
  80              		.align	3
  81              		.type	RMS_Volt, %object
ARM GAS  C:\Users\Soren\AppData\Local\Temp\ccvXuKbv.s 			page 3


  82              		.size	RMS_Volt, 8
  83              	RMS_Volt:
  84 0e10 00000000 		.space	8
  84      00000000 
  85              		.global	Amp_Ampere
  86              		.align	3
  87              		.type	Amp_Ampere, %object
  88              		.size	Amp_Ampere, 8
  89              	Amp_Ampere:
  90 0e18 00000000 		.space	8
  90      00000000 
  91              		.global	RMS_Ampere
  92              		.align	3
  93              		.type	RMS_Ampere, %object
  94              		.size	RMS_Ampere, 8
  95              	RMS_Ampere:
  96 0e20 00000000 		.space	8
  96      00000000 
  97              		.global	PF
  98              		.align	3
  99              		.type	PF, %object
 100              		.size	PF, 8
 101              	PF:
 102 0e28 00000000 		.space	8
 102      00000000 
 103              		.global	THD
 104              		.align	3
 105              		.type	THD, %object
 106              		.size	THD, 8
 107              	THD:
 108 0e30 00000000 		.space	8
 108      00000000 
 109              		.section	.text.sampleUandI,"ax",%progbits
 110              		.align	2
 111              		.global	sampleUandI
 112              		.thumb
 113              		.thumb_func
 114              		.type	sampleUandI, %function
 115              	sampleUandI:
 116              	.LFB63:
 117              		.file 1 "sample.c"
   1:sample.c      **** /* ========================================
   2:sample.c      ****  *
   3:sample.c      ****  * Copyright YOUR COMPANY, THE YEAR
   4:sample.c      ****  * All Rights Reserved
   5:sample.c      ****  * UNPUBLISHED, LICENSED SOFTWARE.
   6:sample.c      ****  *
   7:sample.c      ****  * CONFIDENTIAL AND PROPRIETARY INFORMATION
   8:sample.c      ****  * WHICH IS THE PROPERTY OF your company.
   9:sample.c      ****  *
  10:sample.c      ****  * ========================================
  11:sample.c      **** */
  12:sample.c      **** #include "sample.h"
  13:sample.c      **** 
  14:sample.c      **** /* [] END OF FILE */
  15:sample.c      **** 
  16:sample.c      **** void sampleUandI(int *Uarray, int *Iarray, int size)
ARM GAS  C:\Users\Soren\AppData\Local\Temp\ccvXuKbv.s 			page 4


  17:sample.c      **** {       
 118              		.loc 1 17 0
 119              		.cfi_startproc
 120              		@ args = 0, pretend = 0, frame = 32
 121              		@ frame_needed = 1, uses_anonymous_args = 0
 122 0000 90B5     		push	{r4, r7, lr}
 123              		.cfi_def_cfa_offset 12
 124              		.cfi_offset 4, -12
 125              		.cfi_offset 7, -8
 126              		.cfi_offset 14, -4
 127 0002 89B0     		sub	sp, sp, #36
 128              		.cfi_def_cfa_offset 48
 129 0004 00AF     		add	r7, sp, #0
 130              		.cfi_def_cfa_register 7
 131 0006 F860     		str	r0, [r7, #12]
 132 0008 B960     		str	r1, [r7, #8]
 133 000a 7A60     		str	r2, [r7, #4]
  18:sample.c      ****     /*Oprettelse af interne variabler*/
  19:sample.c      ****         int indexU = 0, indexI = 0, i;
 134              		.loc 1 19 0
 135 000c 0023     		movs	r3, #0
 136 000e FB61     		str	r3, [r7, #28]
 137 0010 0023     		movs	r3, #0
 138 0012 BB61     		str	r3, [r7, #24]
  20:sample.c      ****     /*for-løkke som tager 64 samples af spænding og af strøm målingerne.
  21:sample.c      ****     Disse samples ligges i de arrays, som er givet med funktione som parametre*/
  22:sample.c      ****         for(i=0;i<size;i++)
 139              		.loc 1 22 0
 140 0014 0023     		movs	r3, #0
 141 0016 7B61     		str	r3, [r7, #20]
 142 0018 3BE0     		b	.L2
 143              	.L6:
  23:sample.c      ****         {
  24:sample.c      ****            /*Test bruges til at måle sampletiden*/
  25:sample.c      ****             test_Write(1);
 144              		.loc 1 25 0
 145 001a 0120     		movs	r0, #1
 146 001c FFF7FEFF 		bl	test_Write
  26:sample.c      ****             /*Tager sample af spændingen ved alle lige værdier af i*/
  27:sample.c      ****             if(i%2 == 0)
 147              		.loc 1 27 0
 148 0020 7B69     		ldr	r3, [r7, #20]
 149 0022 03F00103 		and	r3, r3, #1
 150 0026 002B     		cmp	r3, #0
 151 0028 14D1     		bne	.L3
  28:sample.c      ****             {
  29:sample.c      ****                 AMux_1_FastSelect(0u);
 152              		.loc 1 29 0
 153 002a 0020     		movs	r0, #0
 154 002c FFF7FEFF 		bl	AMux_1_FastSelect
  30:sample.c      ****                 AMux_2_FastSelect(0u);
 155              		.loc 1 30 0
 156 0030 0020     		movs	r0, #0
 157 0032 FFF7FEFF 		bl	AMux_2_FastSelect
  31:sample.c      ****                 Uarray[indexU++] = ADC_DelSig_1_CountsTo_mVolts( ADC_DelSig_1_Read16());
 158              		.loc 1 31 0
 159 0036 FB69     		ldr	r3, [r7, #28]
ARM GAS  C:\Users\Soren\AppData\Local\Temp\ccvXuKbv.s 			page 5


 160 0038 5A1C     		adds	r2, r3, #1
 161 003a FA61     		str	r2, [r7, #28]
 162 003c 9B00     		lsls	r3, r3, #2
 163 003e FA68     		ldr	r2, [r7, #12]
 164 0040 D418     		adds	r4, r2, r3
 165 0042 FFF7FEFF 		bl	ADC_DelSig_1_Read16
 166 0046 0346     		mov	r3, r0
 167 0048 1846     		mov	r0, r3
 168 004a FFF7FEFF 		bl	ADC_DelSig_1_CountsTo_mVolts
 169 004e 0346     		mov	r3, r0
 170 0050 2360     		str	r3, [r4]
 171 0052 13E0     		b	.L4
 172              	.L3:
  32:sample.c      ****             }
  33:sample.c      ****             /*Tager sample af strømmen ved alle ulige værdier af i*/
  34:sample.c      ****             else
  35:sample.c      ****             {
  36:sample.c      ****                 AMux_1_FastSelect(1u);
 173              		.loc 1 36 0
 174 0054 0120     		movs	r0, #1
 175 0056 FFF7FEFF 		bl	AMux_1_FastSelect
  37:sample.c      ****                 AMux_2_FastSelect(1u);
 176              		.loc 1 37 0
 177 005a 0120     		movs	r0, #1
 178 005c FFF7FEFF 		bl	AMux_2_FastSelect
  38:sample.c      ****                 Iarray[indexI++] = ADC_DelSig_1_CountsTo_mVolts( ADC_DelSig_1_Read16());
 179              		.loc 1 38 0
 180 0060 BB69     		ldr	r3, [r7, #24]
 181 0062 5A1C     		adds	r2, r3, #1
 182 0064 BA61     		str	r2, [r7, #24]
 183 0066 9B00     		lsls	r3, r3, #2
 184 0068 BA68     		ldr	r2, [r7, #8]
 185 006a D418     		adds	r4, r2, r3
 186 006c FFF7FEFF 		bl	ADC_DelSig_1_Read16
 187 0070 0346     		mov	r3, r0
 188 0072 1846     		mov	r0, r3
 189 0074 FFF7FEFF 		bl	ADC_DelSig_1_CountsTo_mVolts
 190 0078 0346     		mov	r3, r0
 191 007a 2360     		str	r3, [r4]
 192              	.L4:
  39:sample.c      ****             }
  40:sample.c      ****             /*Efter hvert andet sample indsættes et delay, som er udregnet således sampletiden pa
  41:sample.c      ****             20ms. Se udregninger i mathcad*/
  42:sample.c      ****             if(i%2 != 0)
 193              		.loc 1 42 0
 194 007c 7B69     		ldr	r3, [r7, #20]
 195 007e 03F00103 		and	r3, r3, #1
 196 0082 002B     		cmp	r3, #0
 197 0084 02D0     		beq	.L5
  43:sample.c      ****             CyDelayUs(40);
 198              		.loc 1 43 0
 199 0086 2820     		movs	r0, #40
 200 0088 FFF7FEFF 		bl	CyDelayUs
 201              	.L5:
  22:sample.c      ****         {
 202              		.loc 1 22 0 discriminator 2
 203 008c 7B69     		ldr	r3, [r7, #20]
ARM GAS  C:\Users\Soren\AppData\Local\Temp\ccvXuKbv.s 			page 6


 204 008e 0133     		adds	r3, r3, #1
 205 0090 7B61     		str	r3, [r7, #20]
 206              	.L2:
  22:sample.c      ****         {
 207              		.loc 1 22 0 is_stmt 0 discriminator 1
 208 0092 7A69     		ldr	r2, [r7, #20]
 209 0094 7B68     		ldr	r3, [r7, #4]
 210 0096 9A42     		cmp	r2, r3
 211 0098 BFDB     		blt	.L6
  44:sample.c      ****         }
  45:sample.c      **** }
 212              		.loc 1 45 0 is_stmt 1
 213 009a 2437     		adds	r7, r7, #36
 214              		.cfi_def_cfa_offset 12
 215 009c BD46     		mov	sp, r7
 216              		.cfi_def_cfa_register 13
 217              		@ sp needed
 218 009e 90BD     		pop	{r4, r7, pc}
 219              		.cfi_endproc
 220              	.LFE63:
 221              		.size	sampleUandI, .-sampleUandI
 222              		.global	__aeabi_i2d
 223              		.global	__aeabi_dmul
 224              		.global	__aeabi_dsub
 225              		.section	.text.sampleAndCacl,"ax",%progbits
 226              		.align	2
 227              		.global	sampleAndCacl
 228              		.thumb
 229              		.thumb_func
 230              		.type	sampleAndCacl, %function
 231              	sampleAndCacl:
 232              	.LFB64:
  46:sample.c      **** 
  47:sample.c      **** void sampleAndCacl()
  48:sample.c      **** {
 233              		.loc 1 48 0
 234              		.cfi_startproc
 235              		@ args = 0, pretend = 0, frame = 0
 236              		@ frame_needed = 1, uses_anonymous_args = 0
 237 0000 90B5     		push	{r4, r7, lr}
 238              		.cfi_def_cfa_offset 12
 239              		.cfi_offset 4, -12
 240              		.cfi_offset 7, -8
 241              		.cfi_offset 14, -4
 242 0002 83B0     		sub	sp, sp, #12
 243              		.cfi_def_cfa_offset 24
 244 0004 02AF     		add	r7, sp, #8
 245              		.cfi_def_cfa 7, 16
  49:sample.c      ****         /*Samplefunktion*/
  50:sample.c      ****     
  51:sample.c      ****     sampleUandI(SampleArrayU,SampleArrayI,SIZE);
 246              		.loc 1 51 0
 247 0006 7048     		ldr	r0, .L10+24
 248 0008 7049     		ldr	r1, .L10+28
 249 000a 8022     		movs	r2, #128
 250 000c FFF7FEFF 		bl	sampleUandI
  52:sample.c      **** 
ARM GAS  C:\Users\Soren\AppData\Local\Temp\ccvXuKbv.s 			page 7


  53:sample.c      ****     
  54:sample.c      ****     for(p = 0; p<N_points ; p++)
 251              		.loc 1 54 0
 252 0010 6F4B     		ldr	r3, .L10+32
 253 0012 0022     		movs	r2, #0
 254 0014 1A60     		str	r2, [r3]
 255 0016 3CE0     		b	.L8
 256              	.L9:
  55:sample.c      ****     {
  56:sample.c      ****         Re_volt[p] = SampleArrayU[p];
 257              		.loc 1 56 0 discriminator 3
 258 0018 6D4B     		ldr	r3, .L10+32
 259 001a 1C68     		ldr	r4, [r3]
 260 001c 6C4B     		ldr	r3, .L10+32
 261 001e 1B68     		ldr	r3, [r3]
 262 0020 694A     		ldr	r2, .L10+24
 263 0022 52F82330 		ldr	r3, [r2, r3, lsl #2]
 264 0026 1846     		mov	r0, r3
 265 0028 FFF7FEFF 		bl	__aeabi_i2d
 266 002c 0246     		mov	r2, r0
 267 002e 0B46     		mov	r3, r1
 268 0030 6848     		ldr	r0, .L10+36
 269 0032 E100     		lsls	r1, r4, #3
 270 0034 0144     		add	r1, r1, r0
 271 0036 C1E90023 		strd	r2, [r1]
  57:sample.c      ****         Im_volt[p] = 0;
 272              		.loc 1 57 0 discriminator 3
 273 003a 654B     		ldr	r3, .L10+32
 274 003c 1B68     		ldr	r3, [r3]
 275 003e 664A     		ldr	r2, .L10+40
 276 0040 DB00     		lsls	r3, r3, #3
 277 0042 D118     		adds	r1, r2, r3
 278 0044 4FF00002 		mov	r2, #0
 279 0048 4FF00003 		mov	r3, #0
 280 004c C1E90023 		strd	r2, [r1]
  58:sample.c      ****         
  59:sample.c      ****         Re_Ampere[p] = SampleArrayI[p];
 281              		.loc 1 59 0 discriminator 3
 282 0050 5F4B     		ldr	r3, .L10+32
 283 0052 1C68     		ldr	r4, [r3]
 284 0054 5E4B     		ldr	r3, .L10+32
 285 0056 1B68     		ldr	r3, [r3]
 286 0058 5C4A     		ldr	r2, .L10+28
 287 005a 52F82330 		ldr	r3, [r2, r3, lsl #2]
 288 005e 1846     		mov	r0, r3
 289 0060 FFF7FEFF 		bl	__aeabi_i2d
 290 0064 0246     		mov	r2, r0
 291 0066 0B46     		mov	r3, r1
 292 0068 5C48     		ldr	r0, .L10+44
 293 006a E100     		lsls	r1, r4, #3
 294 006c 0144     		add	r1, r1, r0
 295 006e C1E90023 		strd	r2, [r1]
  60:sample.c      ****         Im_Ampere[p] = 0;
 296              		.loc 1 60 0 discriminator 3
 297 0072 574B     		ldr	r3, .L10+32
 298 0074 1B68     		ldr	r3, [r3]
 299 0076 5A4A     		ldr	r2, .L10+48
ARM GAS  C:\Users\Soren\AppData\Local\Temp\ccvXuKbv.s 			page 8


 300 0078 DB00     		lsls	r3, r3, #3
 301 007a D118     		adds	r1, r2, r3
 302 007c 4FF00002 		mov	r2, #0
 303 0080 4FF00003 		mov	r3, #0
 304 0084 C1E90023 		strd	r2, [r1]
  54:sample.c      ****     {
 305              		.loc 1 54 0 discriminator 3
 306 0088 514B     		ldr	r3, .L10+32
 307 008a 1B68     		ldr	r3, [r3]
 308 008c 0133     		adds	r3, r3, #1
 309 008e 504A     		ldr	r2, .L10+32
 310 0090 1360     		str	r3, [r2]
 311              	.L8:
  54:sample.c      ****     {
 312              		.loc 1 54 0 is_stmt 0 discriminator 1
 313 0092 4F4B     		ldr	r3, .L10+32
 314 0094 1B68     		ldr	r3, [r3]
 315 0096 3F2B     		cmp	r3, #63
 316 0098 BEDD     		ble	.L9
  61:sample.c      ****     }
  62:sample.c      ****       
  63:sample.c      ****     
  64:sample.c      ****     FFT(2,exponent,Re_volt,Im_volt,Abs_volt);
 317              		.loc 1 64 0 is_stmt 1
 318 009a 524B     		ldr	r3, .L10+52
 319 009c 0093     		str	r3, [sp]
 320 009e 0220     		movs	r0, #2
 321 00a0 0621     		movs	r1, #6
 322 00a2 4C4A     		ldr	r2, .L10+36
 323 00a4 4C4B     		ldr	r3, .L10+40
 324 00a6 FFF7FEFF 		bl	FFT
  65:sample.c      ****     FFT(2,exponent,Re_Ampere,Im_Ampere,Abs_Ampere);
 325              		.loc 1 65 0
 326 00aa 4F4B     		ldr	r3, .L10+56
 327 00ac 0093     		str	r3, [sp]
 328 00ae 0220     		movs	r0, #2
 329 00b0 0621     		movs	r1, #6
 330 00b2 4A4A     		ldr	r2, .L10+44
 331 00b4 4A4B     		ldr	r3, .L10+48
 332 00b6 FFF7FEFF 		bl	FFT
  66:sample.c      ****     
  67:sample.c      ****     
  68:sample.c      ****     Amp_Volt = calculate_50Hz_Amp(Abs_volt)*V_faktor-56.9;
 333              		.loc 1 68 0
 334 00ba 4A48     		ldr	r0, .L10+52
 335 00bc FFF7FEFF 		bl	calculate_50Hz_Amp
 336 00c0 0246     		mov	r2, r0
 337 00c2 0B46     		mov	r3, r1
 338 00c4 1046     		mov	r0, r2
 339 00c6 1946     		mov	r1, r3
 340 00c8 39A3     		adr	r3, .L10
 341 00ca D3E90023 		ldrd	r2, [r3]
 342 00ce FFF7FEFF 		bl	__aeabi_dmul
 343 00d2 0246     		mov	r2, r0
 344 00d4 0B46     		mov	r3, r1
 345 00d6 1046     		mov	r0, r2
 346 00d8 1946     		mov	r1, r3
ARM GAS  C:\Users\Soren\AppData\Local\Temp\ccvXuKbv.s 			page 9


 347 00da 37A3     		adr	r3, .L10+8
 348 00dc D3E90023 		ldrd	r2, [r3]
 349 00e0 FFF7FEFF 		bl	__aeabi_dsub
 350 00e4 0246     		mov	r2, r0
 351 00e6 0B46     		mov	r3, r1
 352 00e8 4049     		ldr	r1, .L10+60
 353 00ea C1E90023 		strd	r2, [r1]
  69:sample.c      ****     RMS_Volt = calculate_50Hz_RMS(Abs_volt)*V_faktor-56.9;
 354              		.loc 1 69 0
 355 00ee 3D48     		ldr	r0, .L10+52
 356 00f0 FFF7FEFF 		bl	calculate_50Hz_RMS
 357 00f4 0246     		mov	r2, r0
 358 00f6 0B46     		mov	r3, r1
 359 00f8 1046     		mov	r0, r2
 360 00fa 1946     		mov	r1, r3
 361 00fc 2CA3     		adr	r3, .L10
 362 00fe D3E90023 		ldrd	r2, [r3]
 363 0102 FFF7FEFF 		bl	__aeabi_dmul
 364 0106 0246     		mov	r2, r0
 365 0108 0B46     		mov	r3, r1
 366 010a 1046     		mov	r0, r2
 367 010c 1946     		mov	r1, r3
 368 010e 2AA3     		adr	r3, .L10+8
 369 0110 D3E90023 		ldrd	r2, [r3]
 370 0114 FFF7FEFF 		bl	__aeabi_dsub
 371 0118 0246     		mov	r2, r0
 372 011a 0B46     		mov	r3, r1
 373 011c 3449     		ldr	r1, .L10+64
 374 011e C1E90023 		strd	r2, [r1]
  70:sample.c      ****     Amp_Ampere = calculate_50Hz_Amp(Abs_Ampere)*I_faktor-2.5;
 375              		.loc 1 70 0
 376 0122 3148     		ldr	r0, .L10+56
 377 0124 FFF7FEFF 		bl	calculate_50Hz_Amp
 378 0128 0246     		mov	r2, r0
 379 012a 0B46     		mov	r3, r1
 380 012c 1046     		mov	r0, r2
 381 012e 1946     		mov	r1, r3
 382 0130 23A3     		adr	r3, .L10+16
 383 0132 D3E90023 		ldrd	r2, [r3]
 384 0136 FFF7FEFF 		bl	__aeabi_dmul
 385 013a 0246     		mov	r2, r0
 386 013c 0B46     		mov	r3, r1
 387 013e 1046     		mov	r0, r2
 388 0140 1946     		mov	r1, r3
 389 0142 4FF00002 		mov	r2, #0
 390 0146 2B4B     		ldr	r3, .L10+68
 391 0148 FFF7FEFF 		bl	__aeabi_dsub
 392 014c 0246     		mov	r2, r0
 393 014e 0B46     		mov	r3, r1
 394 0150 2949     		ldr	r1, .L10+72
 395 0152 C1E90023 		strd	r2, [r1]
  71:sample.c      ****     RMS_Ampere = calculate_50Hz_RMS(Abs_Ampere)*I_faktor-2.5;
 396              		.loc 1 71 0
 397 0156 2448     		ldr	r0, .L10+56
 398 0158 FFF7FEFF 		bl	calculate_50Hz_RMS
 399 015c 0246     		mov	r2, r0
 400 015e 0B46     		mov	r3, r1
ARM GAS  C:\Users\Soren\AppData\Local\Temp\ccvXuKbv.s 			page 10


 401 0160 1046     		mov	r0, r2
 402 0162 1946     		mov	r1, r3
 403 0164 16A3     		adr	r3, .L10+16
 404 0166 D3E90023 		ldrd	r2, [r3]
 405 016a FFF7FEFF 		bl	__aeabi_dmul
 406 016e 0246     		mov	r2, r0
 407 0170 0B46     		mov	r3, r1
 408 0172 1046     		mov	r0, r2
 409 0174 1946     		mov	r1, r3
 410 0176 4FF00002 		mov	r2, #0
 411 017a 1E4B     		ldr	r3, .L10+68
 412 017c FFF7FEFF 		bl	__aeabi_dsub
 413 0180 0246     		mov	r2, r0
 414 0182 0B46     		mov	r3, r1
 415 0184 1D49     		ldr	r1, .L10+76
 416 0186 C1E90023 		strd	r2, [r1]
  72:sample.c      ****     PF = calculate_50Hz_PF();
 417              		.loc 1 72 0
 418 018a FFF7FEFF 		bl	calculate_50Hz_PF
 419 018e 0246     		mov	r2, r0
 420 0190 0B46     		mov	r3, r1
 421 0192 1B49     		ldr	r1, .L10+80
 422 0194 C1E90023 		strd	r2, [r1]
  73:sample.c      ****     THD = calculate_THD();
 423              		.loc 1 73 0
 424 0198 FFF7FEFF 		bl	calculate_THD
 425 019c 0246     		mov	r2, r0
 426 019e 0B46     		mov	r3, r1
 427 01a0 1849     		ldr	r1, .L10+84
 428 01a2 C1E90023 		strd	r2, [r1]
  74:sample.c      **** }
 429              		.loc 1 74 0
 430 01a6 0437     		adds	r7, r7, #4
 431              		.cfi_def_cfa_offset 12
 432 01a8 BD46     		mov	sp, r7
 433              		.cfi_def_cfa_register 13
 434              		@ sp needed
 435 01aa 90BD     		pop	{r4, r7, pc}
 436              	.L11:
 437 01ac AFF30080 		.align	3
 438              	.L10:
 439 01b0 C4B12E6E 		.word	1848553924
 440 01b4 A3C11540 		.word	1075167651
 441 01b8 33333333 		.word	858993459
 442 01bc 33734C40 		.word	1078752051
 443 01c0 39454772 		.word	1917273401
 444 01c4 F90FD53F 		.word	1070927865
 445 01c8 00000000 		.word	SampleArrayU
 446 01cc 00000000 		.word	SampleArrayI
 447 01d0 00000000 		.word	p
 448 01d4 00000000 		.word	Re_volt
 449 01d8 00000000 		.word	Im_volt
 450 01dc 00000000 		.word	Re_Ampere
 451 01e0 00000000 		.word	Im_Ampere
 452 01e4 00000000 		.word	Abs_volt
 453 01e8 00000000 		.word	Abs_Ampere
 454 01ec 00000000 		.word	Amp_Volt
ARM GAS  C:\Users\Soren\AppData\Local\Temp\ccvXuKbv.s 			page 11


 455 01f0 00000000 		.word	RMS_Volt
 456 01f4 00000440 		.word	1074003968
 457 01f8 00000000 		.word	Amp_Ampere
 458 01fc 00000000 		.word	RMS_Ampere
 459 0200 00000000 		.word	PF
 460 0204 00000000 		.word	THD
 461              		.cfi_endproc
 462              	.LFE64:
 463              		.size	sampleAndCacl, .-sampleAndCacl
 464              		.global	__aeabi_d2uiz
 465              		.section	.text.makeMSB,"ax",%progbits
 466              		.align	2
 467              		.global	makeMSB
 468              		.thumb
 469              		.thumb_func
 470              		.type	makeMSB, %function
 471              	makeMSB:
 472              	.LFB65:
  75:sample.c      **** 
  76:sample.c      **** uint8 makeMSB(double num)
  77:sample.c      **** {
 473              		.loc 1 77 0
 474              		.cfi_startproc
 475              		@ args = 0, pretend = 0, frame = 16
 476              		@ frame_needed = 1, uses_anonymous_args = 0
 477 0000 80B5     		push	{r7, lr}
 478              		.cfi_def_cfa_offset 8
 479              		.cfi_offset 7, -8
 480              		.cfi_offset 14, -4
 481 0002 84B0     		sub	sp, sp, #16
 482              		.cfi_def_cfa_offset 24
 483 0004 00AF     		add	r7, sp, #0
 484              		.cfi_def_cfa_register 7
 485 0006 C7E90001 		strd	r0, [r7]
  78:sample.c      ****     uint16 numInt = num;
 486              		.loc 1 78 0
 487 000a D7E90001 		ldrd	r0, [r7]
 488 000e FFF7FEFF 		bl	__aeabi_d2uiz
 489 0012 0346     		mov	r3, r0
 490 0014 FB81     		strh	r3, [r7, #14]	@ movhi
  79:sample.c      ****     
  80:sample.c      ****     return numInt >> 8;
 491              		.loc 1 80 0
 492 0016 FB89     		ldrh	r3, [r7, #14]
 493 0018 1B0A     		lsrs	r3, r3, #8
 494 001a 9BB2     		uxth	r3, r3
 495 001c DBB2     		uxtb	r3, r3
  81:sample.c      ****    
  82:sample.c      **** }
 496              		.loc 1 82 0
 497 001e 1846     		mov	r0, r3
 498 0020 1037     		adds	r7, r7, #16
 499              		.cfi_def_cfa_offset 8
 500 0022 BD46     		mov	sp, r7
 501              		.cfi_def_cfa_register 13
 502              		@ sp needed
 503 0024 80BD     		pop	{r7, pc}
ARM GAS  C:\Users\Soren\AppData\Local\Temp\ccvXuKbv.s 			page 12


 504              		.cfi_endproc
 505              	.LFE65:
 506              		.size	makeMSB, .-makeMSB
 507 0026 00BF     		.section	.text.makeLSB,"ax",%progbits
 508              		.align	2
 509              		.global	makeLSB
 510              		.thumb
 511              		.thumb_func
 512              		.type	makeLSB, %function
 513              	makeLSB:
 514              	.LFB66:
  83:sample.c      **** 
  84:sample.c      **** uint8 makeLSB (double num)
  85:sample.c      **** {
 515              		.loc 1 85 0
 516              		.cfi_startproc
 517              		@ args = 0, pretend = 0, frame = 16
 518              		@ frame_needed = 1, uses_anonymous_args = 0
 519 0000 80B5     		push	{r7, lr}
 520              		.cfi_def_cfa_offset 8
 521              		.cfi_offset 7, -8
 522              		.cfi_offset 14, -4
 523 0002 84B0     		sub	sp, sp, #16
 524              		.cfi_def_cfa_offset 24
 525 0004 00AF     		add	r7, sp, #0
 526              		.cfi_def_cfa_register 7
 527 0006 C7E90001 		strd	r0, [r7]
  86:sample.c      ****     uint16 numInt = num;
 528              		.loc 1 86 0
 529 000a D7E90001 		ldrd	r0, [r7]
 530 000e FFF7FEFF 		bl	__aeabi_d2uiz
 531 0012 0346     		mov	r3, r0
 532 0014 FB81     		strh	r3, [r7, #14]	@ movhi
  87:sample.c      ****     
  88:sample.c      ****     return numInt & 0x00FF;
 533              		.loc 1 88 0
 534 0016 FB89     		ldrh	r3, [r7, #14]	@ movhi
 535 0018 DBB2     		uxtb	r3, r3
  89:sample.c      **** }
 536              		.loc 1 89 0
 537 001a 1846     		mov	r0, r3
 538 001c 1037     		adds	r7, r7, #16
 539              		.cfi_def_cfa_offset 8
 540 001e BD46     		mov	sp, r7
 541              		.cfi_def_cfa_register 13
 542              		@ sp needed
 543 0020 80BD     		pop	{r7, pc}
 544              		.cfi_endproc
 545              	.LFE66:
 546              		.size	makeLSB, .-makeLSB
 547 0022 00BF     		.text
 548              	.Letext0:
 549              		.file 2 "c:\\program files (x86)\\cypress\\psoc creator\\4.0\\psoc creator\\import\\gnu\\arm\\4.9.
 550              		.file 3 "c:\\program files (x86)\\cypress\\psoc creator\\4.0\\psoc creator\\import\\gnu\\arm\\4.9.
 551              		.file 4 "Generated_Source\\PSoC5/cytypes.h"
 552              		.file 5 "Generated_Source\\PSoC5/core_cm3.h"
 553              		.file 6 "GlobalVariables.h"
ARM GAS  C:\Users\Soren\AppData\Local\Temp\ccvXuKbv.s 			page 13

