ARM GAS  C:\Users\Soren\AppData\Local\Temp\cc0U1BKj.s 			page 1


   1              		.syntax unified
   2              		.cpu cortex-m3
   3              		.fpu softvfp
   4              		.eabi_attribute 20, 1
   5              		.eabi_attribute 21, 1
   6              		.eabi_attribute 23, 3
   7              		.eabi_attribute 24, 1
   8              		.eabi_attribute 25, 1
   9              		.eabi_attribute 26, 1
  10              		.eabi_attribute 30, 1
  11              		.eabi_attribute 34, 1
  12              		.eabi_attribute 18, 4
  13              		.thumb
  14              		.file	"main.c"
  15              		.text
  16              	.Ltext0:
  17              		.cfi_sections	.debug_frame
  18              		.section	.text.main,"ax",%progbits
  19              		.align	2
  20              		.global	main
  21              		.thumb
  22              		.thumb_func
  23              		.type	main, %function
  24              	main:
  25              	.LFB63:
  26              		.file 1 "main.c"
   1:main.c        **** /* ========================================
   2:main.c        ****  *
   3:main.c        ****  * Copyright YOUR COMPANY, THE YEAR
   4:main.c        ****  * All Rights Reserved
   5:main.c        ****  * UNPUBLISHED, LICENSED SOFTWARE.
   6:main.c        ****  *
   7:main.c        ****  * CONFIDENTIAL AND PROPRIETARY INFORMATION
   8:main.c        ****  * WHICH IS THE PROPERTY OF your company.
   9:main.c        ****  *
  10:main.c        ****  * ========================================
  11:main.c        **** */
  12:main.c        **** #include "project.h"
  13:main.c        **** #include "stdio.h"
  14:main.c        **** #define SIZE 5000
  15:main.c        **** 
  16:main.c        **** int main(void)
  17:main.c        **** {
  27              		.loc 1 17 0
  28              		.cfi_startproc
  29              		@ args = 0, pretend = 0, frame = 20000
  30              		@ frame_needed = 0, uses_anonymous_args = 0
  31 0000 2DE9F041 		push	{r4, r5, r6, r7, r8, lr}
  32              		.cfi_def_cfa_offset 24
  33              		.cfi_offset 4, -24
  34              		.cfi_offset 5, -20
  35              		.cfi_offset 6, -16
  36              		.cfi_offset 7, -12
  37              		.cfi_offset 8, -8
  38              		.cfi_offset 14, -4
  39 0004 ADF59C4D 		sub	sp, sp, #19968
  40              		.cfi_def_cfa_offset 19992
ARM GAS  C:\Users\Soren\AppData\Local\Temp\cc0U1BKj.s 			page 2


  41 0008 88B0     		sub	sp, sp, #32
  42              		.cfi_def_cfa_offset 20024
  18:main.c        ****     //CyGlobalIntEnable; /* Enable global interrupts. */
  19:main.c        **** 
  20:main.c        ****     /* Place your initialization/startup code here (e.g. MyInst_Start()) */
  21:main.c        ****     
  22:main.c        ****     ADC_DelSig_1_Start();
  43              		.loc 1 22 0
  44 000a FFF7FEFF 		bl	ADC_DelSig_1_Start
  45              	.LVL0:
  23:main.c        ****     ADC_DelSig_1_StartConvert();
  46              		.loc 1 23 0
  47 000e FFF7FEFF 		bl	ADC_DelSig_1_StartConvert
  48              	.LVL1:
  24:main.c        ****     
  25:main.c        ****     AMux_1_Start();
  49              		.loc 1 25 0
  50 0012 FFF7FEFF 		bl	AMux_1_Start
  51              	.LVL2:
  26:main.c        ****     AMux_2_Start();
  52              		.loc 1 26 0
  53 0016 FFF7FEFF 		bl	AMux_2_Start
  54              	.LVL3:
  27:main.c        ****     
  28:main.c        ****     int SampleArrayU[SIZE/2]={0};
  55              		.loc 1 28 0
  56 001a 42F21074 		movw	r4, #10000
  57 001e 0DEB0400 		add	r0, sp, r4
  58 0022 0021     		movs	r1, #0
  59 0024 2246     		mov	r2, r4
  60 0026 FFF7FEFF 		bl	memset
  61              	.LVL4:
  29:main.c        ****     int SampleArrayI[SIZE/2]={0};
  62              		.loc 1 29 0
  63 002a 6846     		mov	r0, sp
  64 002c 0021     		movs	r1, #0
  65 002e 2246     		mov	r2, r4
  66 0030 FFF7FEFF 		bl	memset
  67              	.LVL5:
  68              	.L8:
  69              	.LBB2:
  30:main.c        ****     
  31:main.c        ****     int i, debugValue, dV;
  32:main.c        ****     for(;;)
  33:main.c        ****     {
  34:main.c        ****         /* Place your application code here. */
  35:main.c        ****         test_Write(1);
  70              		.loc 1 35 0
  71 0034 0120     		movs	r0, #1
  72 0036 FFF7FEFF 		bl	test_Write
  73              	.LVL6:
  36:main.c        ****          int indexU = 0, indexI = 0;
  74              		.loc 1 36 0
  75 003a 0027     		movs	r7, #0
  76 003c 3D46     		mov	r5, r7
  37:main.c        ****         for(i=0;i<SIZE;i++)
  77              		.loc 1 37 0
ARM GAS  C:\Users\Soren\AppData\Local\Temp\cc0U1BKj.s 			page 3


  78 003e 3C46     		mov	r4, r7
  79 0040 34E0     		b	.L2
  80              	.LVL7:
  81              	.L7:
  38:main.c        ****         {
  39:main.c        ****            
  40:main.c        ****             if(i%2 == 0)
  82              		.loc 1 40 0
  83 0042 14F0010F 		tst	r4, #1
  84 0046 16D1     		bne	.L3
  41:main.c        ****             {
  42:main.c        ****                 //Skriver spændingsmålong i ArrayU
  43:main.c        ****                 AMux_1_FastSelect(0);
  85              		.loc 1 43 0
  86 0048 0020     		movs	r0, #0
  87 004a FFF7FEFF 		bl	AMux_1_FastSelect
  88              	.LVL8:
  44:main.c        ****                 AMux_2_FastSelect(0);
  89              		.loc 1 44 0
  90 004e 0020     		movs	r0, #0
  91 0050 FFF7FEFF 		bl	AMux_2_FastSelect
  92              	.LVL9:
  93              	.L4:
  45:main.c        ****                 while(!ADC_DelSig_1_IsEndConversion(ADC_DelSig_1_RETURN_STATUS));
  94              		.loc 1 45 0 discriminator 1
  95 0054 0120     		movs	r0, #1
  96 0056 FFF7FEFF 		bl	ADC_DelSig_1_IsEndConversion
  97              	.LVL10:
  98 005a 0028     		cmp	r0, #0
  99 005c FAD0     		beq	.L4
  46:main.c        ****                 SampleArrayU[indexU++] = ADC_DelSig_1_CountsTo_mVolts( ADC_DelSig_1_GetResult16());
 100              		.loc 1 46 0
 101 005e 6E1C     		adds	r6, r5, #1
 102              	.LVL11:
 103 0060 FFF7FEFF 		bl	ADC_DelSig_1_GetResult16
 104              	.LVL12:
 105 0064 FFF7FEFF 		bl	ADC_DelSig_1_CountsTo_mVolts
 106              	.LVL13:
 107 0068 0DF51C53 		add	r3, sp, #9984
 108 006c 1033     		adds	r3, r3, #16
 109 006e 43F82500 		str	r0, [r3, r5, lsl #2]
 110 0072 3546     		mov	r5, r6
 111 0074 12E0     		b	.L5
 112              	.LVL14:
 113              	.L3:
  47:main.c        ****             }else
  48:main.c        ****             {
  49:main.c        ****                 //Skriver strømmåling i ArrayI
  50:main.c        ****                 AMux_1_FastSelect(1);
 114              		.loc 1 50 0
 115 0076 0120     		movs	r0, #1
 116 0078 FFF7FEFF 		bl	AMux_1_FastSelect
 117              	.LVL15:
  51:main.c        ****                 AMux_2_FastSelect(1);
 118              		.loc 1 51 0
 119 007c 0120     		movs	r0, #1
 120 007e FFF7FEFF 		bl	AMux_2_FastSelect
ARM GAS  C:\Users\Soren\AppData\Local\Temp\cc0U1BKj.s 			page 4


 121              	.LVL16:
 122              	.L6:
  52:main.c        ****                 while(!ADC_DelSig_1_IsEndConversion(ADC_DelSig_1_RETURN_STATUS));
 123              		.loc 1 52 0 discriminator 1
 124 0082 0120     		movs	r0, #1
 125 0084 FFF7FEFF 		bl	ADC_DelSig_1_IsEndConversion
 126              	.LVL17:
 127 0088 0028     		cmp	r0, #0
 128 008a FAD0     		beq	.L6
  53:main.c        ****                 SampleArrayI[indexI++] = ADC_DelSig_1_CountsTo_mVolts( ADC_DelSig_1_GetResult16());
 129              		.loc 1 53 0
 130 008c 7E1C     		adds	r6, r7, #1
 131              	.LVL18:
 132 008e FFF7FEFF 		bl	ADC_DelSig_1_GetResult16
 133              	.LVL19:
 134 0092 FFF7FEFF 		bl	ADC_DelSig_1_CountsTo_mVolts
 135              	.LVL20:
 136 0096 4DF82700 		str	r0, [sp, r7, lsl #2]
 137 009a 3746     		mov	r7, r6
 138              	.LVL21:
 139              	.L5:
  54:main.c        ****             }
  55:main.c        **** 
  56:main.c        ****             debugValue = SampleArrayU[i];
 140              		.loc 1 56 0 discriminator 2
 141 009c 0DF51C53 		add	r3, sp, #9984
 142 00a0 1033     		adds	r3, r3, #16
 143 00a2 53F82460 		ldr	r6, [r3, r4, lsl #2]
 144              	.LVL22:
  57:main.c        ****             dV = SampleArrayI[i];
 145              		.loc 1 57 0 discriminator 2
 146 00a6 5DF82480 		ldr	r8, [sp, r4, lsl #2]
 147              	.LVL23:
  37:main.c        ****         {
 148              		.loc 1 37 0 discriminator 2
 149 00aa 0134     		adds	r4, r4, #1
 150              	.LVL24:
 151              	.L2:
  37:main.c        ****         {
 152              		.loc 1 37 0 is_stmt 0 discriminator 1
 153 00ac 41F28733 		movw	r3, #4999
 154 00b0 9C42     		cmp	r4, r3
 155 00b2 C6DD     		ble	.L7
  58:main.c        ****             //CyDelay(1);
  59:main.c        ****         }
  60:main.c        ****         printf("Hello %d %d",debugValue,dV);
 156              		.loc 1 60 0 is_stmt 1
 157 00b4 0448     		ldr	r0, .L10
 158 00b6 3146     		mov	r1, r6
 159 00b8 4246     		mov	r2, r8
 160 00ba FFF7FEFF 		bl	printf
 161              	.LVL25:
  61:main.c        ****         //CyDelay(1000);
  62:main.c        ****         test_Write(0);
 162              		.loc 1 62 0
 163 00be 0020     		movs	r0, #0
 164 00c0 FFF7FEFF 		bl	test_Write
ARM GAS  C:\Users\Soren\AppData\Local\Temp\cc0U1BKj.s 			page 5


 165              	.LVL26:
 166              	.LBE2:
  63:main.c        ****     }
 167              		.loc 1 63 0
 168 00c4 B6E7     		b	.L8
 169              	.L11:
 170 00c6 00BF     		.align	2
 171              	.L10:
 172 00c8 00000000 		.word	.LC0
 173              		.cfi_endproc
 174              	.LFE63:
 175              		.size	main, .-main
 176              		.section	.rodata.str1.4,"aMS",%progbits,1
 177              		.align	2
 178              	.LC0:
 179 0000 48656C6C 		.ascii	"Hello %d %d\000"
 179      6F202564 
 179      20256400 
 180              		.text
 181              	.Letext0:
 182              		.file 2 "c:\\program files (x86)\\cypress\\psoc creator\\4.0\\psoc creator\\import\\gnu\\arm\\4.9.
 183              		.file 3 "c:\\program files (x86)\\cypress\\psoc creator\\4.0\\psoc creator\\import\\gnu\\arm\\4.9.
 184              		.file 4 "Generated_Source\\PSoC5/cytypes.h"
 185              		.file 5 "Generated_Source\\PSoC5/test.h"
 186              		.file 6 "Generated_Source\\PSoC5/AMux_1.h"
 187              		.file 7 "Generated_Source\\PSoC5/AMux_2.h"
 188              		.file 8 "Generated_Source\\PSoC5/ADC_DelSig_1.h"
 189              		.file 9 "c:\\program files (x86)\\cypress\\psoc creator\\4.0\\psoc creator\\import\\gnu\\arm\\4.9.
 190              		.file 10 "Generated_Source\\PSoC5/core_cm3.h"