ARM GAS  C:\Users\User\AppData\Local\Temp\ccSj4pu6.s 			page 1


   1              		.syntax unified
   2              		.cpu cortex-m3
   3              		.fpu softvfp
   4              		.eabi_attribute 20, 1
   5              		.eabi_attribute 21, 1
   6              		.eabi_attribute 23, 3
   7              		.eabi_attribute 24, 1
   8              		.eabi_attribute 25, 1
   9              		.eabi_attribute 26, 1
  10              		.eabi_attribute 30, 6
  11              		.eabi_attribute 34, 1
  12              		.eabi_attribute 18, 4
  13              		.thumb
  14              		.file	"sample.c"
  15              		.text
  16              	.Ltext0:
  17              		.cfi_sections	.debug_frame
  18              		.comm	Abs_volt,512,8
  19              		.comm	Re_volt,512,8
  20              		.comm	Im_volt,512,8
  21              		.comm	Abs_Ampere,512,8
  22              		.comm	Re_Ampere,512,8
  23              		.comm	Im_Ampere,512,8
  24              		.comm	Amp_Volt,8,8
  25              		.comm	RMS_Volt,8,8
  26              		.comm	Amp_Ampere,8,8
  27              		.comm	RMS_Ampere,8,8
  28              		.comm	PF,8,8
  29              		.comm	THD,8,8
  30              		.comm	SampleArrayU,256,4
  31              		.comm	SampleArrayI,256,4
  32              		.section	.text.sampleUandI,"ax",%progbits
  33              		.align	2
  34              		.global	sampleUandI
  35              		.thumb
  36              		.thumb_func
  37              		.type	sampleUandI, %function
  38              	sampleUandI:
  39              	.LFB63:
  40              		.file 1 "sample.c"
   1:sample.c      **** /* ========================================
   2:sample.c      ****  *
   3:sample.c      ****  * Copyright YOUR COMPANY, THE YEAR
   4:sample.c      ****  * All Rights Reserved
   5:sample.c      ****  * UNPUBLISHED, LICENSED SOFTWARE.
   6:sample.c      ****  *
   7:sample.c      ****  * CONFIDENTIAL AND PROPRIETARY INFORMATION
   8:sample.c      ****  * WHICH IS THE PROPERTY OF your company.
   9:sample.c      ****  *
  10:sample.c      ****  * ========================================
  11:sample.c      **** */
  12:sample.c      **** #include "sample.h"
  13:sample.c      **** 
  14:sample.c      **** void sampleUandI(int *Uarray, int *Iarray, int size)
  15:sample.c      **** {       
  41              		.loc 1 15 0
  42              		.cfi_startproc
ARM GAS  C:\Users\User\AppData\Local\Temp\ccSj4pu6.s 			page 2


  43              		@ args = 0, pretend = 0, frame = 32
  44              		@ frame_needed = 1, uses_anonymous_args = 0
  45 0000 90B5     		push	{r4, r7, lr}
  46              		.cfi_def_cfa_offset 12
  47              		.cfi_offset 4, -12
  48              		.cfi_offset 7, -8
  49              		.cfi_offset 14, -4
  50 0002 89B0     		sub	sp, sp, #36
  51              		.cfi_def_cfa_offset 48
  52 0004 00AF     		add	r7, sp, #0
  53              		.cfi_def_cfa_register 7
  54 0006 F860     		str	r0, [r7, #12]
  55 0008 B960     		str	r1, [r7, #8]
  56 000a 7A60     		str	r2, [r7, #4]
  16:sample.c      ****     /*Oprettelse af interne variabler*/
  17:sample.c      ****         int indexU = 0, indexI = 0, i;
  57              		.loc 1 17 0
  58 000c 0023     		movs	r3, #0
  59 000e FB61     		str	r3, [r7, #28]
  60 0010 0023     		movs	r3, #0
  61 0012 BB61     		str	r3, [r7, #24]
  18:sample.c      ****     /*for-løkke som tager 64 samples af spænding og af strøm målingerne.
  19:sample.c      ****     Disse samples ligges i de arrays, som er givet med funktione som parametre*/
  20:sample.c      ****         for(i=0;i<size;i++)
  62              		.loc 1 20 0
  63 0014 0023     		movs	r3, #0
  64 0016 7B61     		str	r3, [r7, #20]
  65 0018 3BE0     		b	.L2
  66              	.L6:
  21:sample.c      ****         {
  22:sample.c      ****            /*Test bruges til at måle sampletiden*/
  23:sample.c      ****             test_Write(1);
  67              		.loc 1 23 0
  68 001a 0120     		movs	r0, #1
  69 001c FFF7FEFF 		bl	test_Write
  24:sample.c      ****             /*Tager sample af spændingen ved alle lige værdier af i*/
  25:sample.c      ****             if(i%2 == 0)
  70              		.loc 1 25 0
  71 0020 7B69     		ldr	r3, [r7, #20]
  72 0022 03F00103 		and	r3, r3, #1
  73 0026 002B     		cmp	r3, #0
  74 0028 14D1     		bne	.L3
  26:sample.c      ****             {
  27:sample.c      ****                 AMux_1_FastSelect(0u);
  75              		.loc 1 27 0
  76 002a 0020     		movs	r0, #0
  77 002c FFF7FEFF 		bl	AMux_1_FastSelect
  28:sample.c      ****                 AMux_2_FastSelect(0u);
  78              		.loc 1 28 0
  79 0030 0020     		movs	r0, #0
  80 0032 FFF7FEFF 		bl	AMux_2_FastSelect
  29:sample.c      ****                 Uarray[indexU++] = ADC_DelSig_1_CountsTo_mVolts( ADC_DelSig_1_Read16());
  81              		.loc 1 29 0
  82 0036 FB69     		ldr	r3, [r7, #28]
  83 0038 5A1C     		adds	r2, r3, #1
  84 003a FA61     		str	r2, [r7, #28]
  85 003c 9B00     		lsls	r3, r3, #2
ARM GAS  C:\Users\User\AppData\Local\Temp\ccSj4pu6.s 			page 3


  86 003e FA68     		ldr	r2, [r7, #12]
  87 0040 D418     		adds	r4, r2, r3
  88 0042 FFF7FEFF 		bl	ADC_DelSig_1_Read16
  89 0046 0346     		mov	r3, r0
  90 0048 1846     		mov	r0, r3
  91 004a FFF7FEFF 		bl	ADC_DelSig_1_CountsTo_mVolts
  92 004e 0346     		mov	r3, r0
  93 0050 2360     		str	r3, [r4]
  94 0052 13E0     		b	.L4
  95              	.L3:
  30:sample.c      ****             }
  31:sample.c      ****             /*Tager sample af strømmen ved alle ulige værdier af i*/
  32:sample.c      ****             else
  33:sample.c      ****             {
  34:sample.c      ****                 AMux_1_FastSelect(1u);
  96              		.loc 1 34 0
  97 0054 0120     		movs	r0, #1
  98 0056 FFF7FEFF 		bl	AMux_1_FastSelect
  35:sample.c      ****                 AMux_2_FastSelect(1u);
  99              		.loc 1 35 0
 100 005a 0120     		movs	r0, #1
 101 005c FFF7FEFF 		bl	AMux_2_FastSelect
  36:sample.c      ****                 Iarray[indexI++] = ADC_DelSig_1_CountsTo_mVolts( ADC_DelSig_1_Read16());
 102              		.loc 1 36 0
 103 0060 BB69     		ldr	r3, [r7, #24]
 104 0062 5A1C     		adds	r2, r3, #1
 105 0064 BA61     		str	r2, [r7, #24]
 106 0066 9B00     		lsls	r3, r3, #2
 107 0068 BA68     		ldr	r2, [r7, #8]
 108 006a D418     		adds	r4, r2, r3
 109 006c FFF7FEFF 		bl	ADC_DelSig_1_Read16
 110 0070 0346     		mov	r3, r0
 111 0072 1846     		mov	r0, r3
 112 0074 FFF7FEFF 		bl	ADC_DelSig_1_CountsTo_mVolts
 113 0078 0346     		mov	r3, r0
 114 007a 2360     		str	r3, [r4]
 115              	.L4:
  37:sample.c      ****             }
  38:sample.c      ****             /*Efter hvert andet sample indsættes et delay, som er udregnet således sampletiden pa
  39:sample.c      ****             20ms. Se udregninger i mathcad*/
  40:sample.c      ****             if(i%2 != 0)
 116              		.loc 1 40 0
 117 007c 7B69     		ldr	r3, [r7, #20]
 118 007e 03F00103 		and	r3, r3, #1
 119 0082 002B     		cmp	r3, #0
 120 0084 02D0     		beq	.L5
  41:sample.c      ****             CyDelayUs(40);
 121              		.loc 1 41 0
 122 0086 2820     		movs	r0, #40
 123 0088 FFF7FEFF 		bl	CyDelayUs
 124              	.L5:
  20:sample.c      ****         {
 125              		.loc 1 20 0 discriminator 2
 126 008c 7B69     		ldr	r3, [r7, #20]
 127 008e 0133     		adds	r3, r3, #1
 128 0090 7B61     		str	r3, [r7, #20]
 129              	.L2:
ARM GAS  C:\Users\User\AppData\Local\Temp\ccSj4pu6.s 			page 4


  20:sample.c      ****         {
 130              		.loc 1 20 0 is_stmt 0 discriminator 1
 131 0092 7A69     		ldr	r2, [r7, #20]
 132 0094 7B68     		ldr	r3, [r7, #4]
 133 0096 9A42     		cmp	r2, r3
 134 0098 BFDB     		blt	.L6
  42:sample.c      ****         }
  43:sample.c      **** }
 135              		.loc 1 43 0 is_stmt 1
 136 009a 2437     		adds	r7, r7, #36
 137              		.cfi_def_cfa_offset 12
 138 009c BD46     		mov	sp, r7
 139              		.cfi_def_cfa_register 13
 140              		@ sp needed
 141 009e 90BD     		pop	{r4, r7, pc}
 142              		.cfi_endproc
 143              	.LFE63:
 144              		.size	sampleUandI, .-sampleUandI
 145              		.global	__aeabi_i2d
 146              		.global	__aeabi_dmul
 147              		.global	__aeabi_dsub
 148              		.section	.text.sampleAndCalc,"ax",%progbits
 149              		.align	2
 150              		.global	sampleAndCalc
 151              		.thumb
 152              		.thumb_func
 153              		.type	sampleAndCalc, %function
 154              	sampleAndCalc:
 155              	.LFB64:
  44:sample.c      **** 
  45:sample.c      **** void sampleAndCalc()
  46:sample.c      **** {
 156              		.loc 1 46 0
 157              		.cfi_startproc
 158              		@ args = 0, pretend = 0, frame = 8
 159              		@ frame_needed = 1, uses_anonymous_args = 0
 160 0000 80B5     		push	{r7, lr}
 161              		.cfi_def_cfa_offset 8
 162              		.cfi_offset 7, -8
 163              		.cfi_offset 14, -4
 164 0002 82B0     		sub	sp, sp, #8
 165              		.cfi_def_cfa_offset 16
 166 0004 00AF     		add	r7, sp, #0
 167              		.cfi_def_cfa_register 7
  47:sample.c      ****         /*Samplefunktion*/
  48:sample.c      ****     int p = 0;
 168              		.loc 1 48 0
 169 0006 0023     		movs	r3, #0
 170 0008 7B60     		str	r3, [r7, #4]
  49:sample.c      ****     sampleUandI(SampleArrayU,SampleArrayI,SIZE);
 171              		.loc 1 49 0
 172 000a 6948     		ldr	r0, .L10+24
 173 000c 6949     		ldr	r1, .L10+28
 174 000e 8022     		movs	r2, #128
 175 0010 FFF7FEFF 		bl	sampleUandI
  50:sample.c      **** 
  51:sample.c      ****     
ARM GAS  C:\Users\User\AppData\Local\Temp\ccSj4pu6.s 			page 5


  52:sample.c      ****     for(p = 0; p<N_points ; p++)
 176              		.loc 1 52 0
 177 0014 0023     		movs	r3, #0
 178 0016 7B60     		str	r3, [r7, #4]
 179 0018 34E0     		b	.L8
 180              	.L9:
  53:sample.c      ****     {
  54:sample.c      ****         Re_volt[p] = SampleArrayU[p];
 181              		.loc 1 54 0 discriminator 3
 182 001a 654A     		ldr	r2, .L10+24
 183 001c 7B68     		ldr	r3, [r7, #4]
 184 001e 52F82330 		ldr	r3, [r2, r3, lsl #2]
 185 0022 1846     		mov	r0, r3
 186 0024 FFF7FEFF 		bl	__aeabi_i2d
 187 0028 0246     		mov	r2, r0
 188 002a 0B46     		mov	r3, r1
 189 002c 6248     		ldr	r0, .L10+32
 190 002e 7968     		ldr	r1, [r7, #4]
 191 0030 C900     		lsls	r1, r1, #3
 192 0032 0144     		add	r1, r1, r0
 193 0034 C1E90023 		strd	r2, [r1]
  55:sample.c      ****         Im_volt[p] = 0;
 194              		.loc 1 55 0 discriminator 3
 195 0038 604A     		ldr	r2, .L10+36
 196 003a 7B68     		ldr	r3, [r7, #4]
 197 003c DB00     		lsls	r3, r3, #3
 198 003e D118     		adds	r1, r2, r3
 199 0040 4FF00002 		mov	r2, #0
 200 0044 4FF00003 		mov	r3, #0
 201 0048 C1E90023 		strd	r2, [r1]
  56:sample.c      ****         
  57:sample.c      ****         Re_Ampere[p] = SampleArrayI[p];
 202              		.loc 1 57 0 discriminator 3
 203 004c 594A     		ldr	r2, .L10+28
 204 004e 7B68     		ldr	r3, [r7, #4]
 205 0050 52F82330 		ldr	r3, [r2, r3, lsl #2]
 206 0054 1846     		mov	r0, r3
 207 0056 FFF7FEFF 		bl	__aeabi_i2d
 208 005a 0246     		mov	r2, r0
 209 005c 0B46     		mov	r3, r1
 210 005e 5848     		ldr	r0, .L10+40
 211 0060 7968     		ldr	r1, [r7, #4]
 212 0062 C900     		lsls	r1, r1, #3
 213 0064 0144     		add	r1, r1, r0
 214 0066 C1E90023 		strd	r2, [r1]
  58:sample.c      ****         Im_Ampere[p] = 0;
 215              		.loc 1 58 0 discriminator 3
 216 006a 564A     		ldr	r2, .L10+44
 217 006c 7B68     		ldr	r3, [r7, #4]
 218 006e DB00     		lsls	r3, r3, #3
 219 0070 D118     		adds	r1, r2, r3
 220 0072 4FF00002 		mov	r2, #0
 221 0076 4FF00003 		mov	r3, #0
 222 007a C1E90023 		strd	r2, [r1]
  52:sample.c      ****     {
 223              		.loc 1 52 0 discriminator 3
 224 007e 7B68     		ldr	r3, [r7, #4]
ARM GAS  C:\Users\User\AppData\Local\Temp\ccSj4pu6.s 			page 6


 225 0080 0133     		adds	r3, r3, #1
 226 0082 7B60     		str	r3, [r7, #4]
 227              	.L8:
  52:sample.c      ****     {
 228              		.loc 1 52 0 is_stmt 0 discriminator 1
 229 0084 7B68     		ldr	r3, [r7, #4]
 230 0086 3F2B     		cmp	r3, #63
 231 0088 C7DD     		ble	.L9
  59:sample.c      ****     }
  60:sample.c      ****       
  61:sample.c      ****     
  62:sample.c      ****     FFT(exponent,Re_volt,Im_volt,Abs_volt);
 232              		.loc 1 62 0 is_stmt 1
 233 008a 0620     		movs	r0, #6
 234 008c 4A49     		ldr	r1, .L10+32
 235 008e 4B4A     		ldr	r2, .L10+36
 236 0090 4D4B     		ldr	r3, .L10+48
 237 0092 FFF7FEFF 		bl	FFT
  63:sample.c      ****     FFT(exponent,Re_Ampere,Im_Ampere,Abs_Ampere);
 238              		.loc 1 63 0
 239 0096 0620     		movs	r0, #6
 240 0098 4949     		ldr	r1, .L10+40
 241 009a 4A4A     		ldr	r2, .L10+44
 242 009c 4B4B     		ldr	r3, .L10+52
 243 009e FFF7FEFF 		bl	FFT
  64:sample.c      ****     
  65:sample.c      ****     
  66:sample.c      ****     Amp_Volt = calculate_50Hz_Amp(Abs_volt)*V_faktor-56.9;
 244              		.loc 1 66 0
 245 00a2 4948     		ldr	r0, .L10+48
 246 00a4 FFF7FEFF 		bl	calculate_50Hz_Amp
 247 00a8 0246     		mov	r2, r0
 248 00aa 0B46     		mov	r3, r1
 249 00ac 1046     		mov	r0, r2
 250 00ae 1946     		mov	r1, r3
 251 00b0 39A3     		adr	r3, .L10
 252 00b2 D3E90023 		ldrd	r2, [r3]
 253 00b6 FFF7FEFF 		bl	__aeabi_dmul
 254 00ba 0246     		mov	r2, r0
 255 00bc 0B46     		mov	r3, r1
 256 00be 1046     		mov	r0, r2
 257 00c0 1946     		mov	r1, r3
 258 00c2 37A3     		adr	r3, .L10+8
 259 00c4 D3E90023 		ldrd	r2, [r3]
 260 00c8 FFF7FEFF 		bl	__aeabi_dsub
 261 00cc 0246     		mov	r2, r0
 262 00ce 0B46     		mov	r3, r1
 263 00d0 3F49     		ldr	r1, .L10+56
 264 00d2 C1E90023 		strd	r2, [r1]
  67:sample.c      ****     RMS_Volt = calculate_50Hz_RMS(Abs_volt)*V_faktor-56.9;
 265              		.loc 1 67 0
 266 00d6 3C48     		ldr	r0, .L10+48
 267 00d8 FFF7FEFF 		bl	calculate_50Hz_RMS
 268 00dc 0246     		mov	r2, r0
 269 00de 0B46     		mov	r3, r1
 270 00e0 1046     		mov	r0, r2
 271 00e2 1946     		mov	r1, r3
ARM GAS  C:\Users\User\AppData\Local\Temp\ccSj4pu6.s 			page 7


 272 00e4 2CA3     		adr	r3, .L10
 273 00e6 D3E90023 		ldrd	r2, [r3]
 274 00ea FFF7FEFF 		bl	__aeabi_dmul
 275 00ee 0246     		mov	r2, r0
 276 00f0 0B46     		mov	r3, r1
 277 00f2 1046     		mov	r0, r2
 278 00f4 1946     		mov	r1, r3
 279 00f6 2AA3     		adr	r3, .L10+8
 280 00f8 D3E90023 		ldrd	r2, [r3]
 281 00fc FFF7FEFF 		bl	__aeabi_dsub
 282 0100 0246     		mov	r2, r0
 283 0102 0B46     		mov	r3, r1
 284 0104 3349     		ldr	r1, .L10+60
 285 0106 C1E90023 		strd	r2, [r1]
  68:sample.c      ****     Amp_Ampere = calculate_50Hz_Amp(Abs_Ampere)*I_faktor-2.5;
 286              		.loc 1 68 0
 287 010a 3048     		ldr	r0, .L10+52
 288 010c FFF7FEFF 		bl	calculate_50Hz_Amp
 289 0110 0246     		mov	r2, r0
 290 0112 0B46     		mov	r3, r1
 291 0114 1046     		mov	r0, r2
 292 0116 1946     		mov	r1, r3
 293 0118 23A3     		adr	r3, .L10+16
 294 011a D3E90023 		ldrd	r2, [r3]
 295 011e FFF7FEFF 		bl	__aeabi_dmul
 296 0122 0246     		mov	r2, r0
 297 0124 0B46     		mov	r3, r1
 298 0126 1046     		mov	r0, r2
 299 0128 1946     		mov	r1, r3
 300 012a 4FF00002 		mov	r2, #0
 301 012e 2A4B     		ldr	r3, .L10+64
 302 0130 FFF7FEFF 		bl	__aeabi_dsub
 303 0134 0246     		mov	r2, r0
 304 0136 0B46     		mov	r3, r1
 305 0138 2849     		ldr	r1, .L10+68
 306 013a C1E90023 		strd	r2, [r1]
  69:sample.c      ****     RMS_Ampere = calculate_50Hz_RMS(Abs_Ampere)*I_faktor-2.5;
 307              		.loc 1 69 0
 308 013e 2348     		ldr	r0, .L10+52
 309 0140 FFF7FEFF 		bl	calculate_50Hz_RMS
 310 0144 0246     		mov	r2, r0
 311 0146 0B46     		mov	r3, r1
 312 0148 1046     		mov	r0, r2
 313 014a 1946     		mov	r1, r3
 314 014c 16A3     		adr	r3, .L10+16
 315 014e D3E90023 		ldrd	r2, [r3]
 316 0152 FFF7FEFF 		bl	__aeabi_dmul
 317 0156 0246     		mov	r2, r0
 318 0158 0B46     		mov	r3, r1
 319 015a 1046     		mov	r0, r2
 320 015c 1946     		mov	r1, r3
 321 015e 4FF00002 		mov	r2, #0
 322 0162 1D4B     		ldr	r3, .L10+64
 323 0164 FFF7FEFF 		bl	__aeabi_dsub
 324 0168 0246     		mov	r2, r0
 325 016a 0B46     		mov	r3, r1
 326 016c 1C49     		ldr	r1, .L10+72
ARM GAS  C:\Users\User\AppData\Local\Temp\ccSj4pu6.s 			page 8


 327 016e C1E90023 		strd	r2, [r1]
  70:sample.c      ****     PF = calculate_50Hz_PF();
 328              		.loc 1 70 0
 329 0172 FFF7FEFF 		bl	calculate_50Hz_PF
 330 0176 0246     		mov	r2, r0
 331 0178 0B46     		mov	r3, r1
 332 017a 1A49     		ldr	r1, .L10+76
 333 017c C1E90023 		strd	r2, [r1]
  71:sample.c      ****     THD = calculate_THD();
 334              		.loc 1 71 0
 335 0180 FFF7FEFF 		bl	calculate_THD
 336 0184 0246     		mov	r2, r0
 337 0186 0B46     		mov	r3, r1
 338 0188 1749     		ldr	r1, .L10+80
 339 018a C1E90023 		strd	r2, [r1]
  72:sample.c      **** }
 340              		.loc 1 72 0
 341 018e 0837     		adds	r7, r7, #8
 342              		.cfi_def_cfa_offset 8
 343 0190 BD46     		mov	sp, r7
 344              		.cfi_def_cfa_register 13
 345              		@ sp needed
 346 0192 80BD     		pop	{r7, pc}
 347              	.L11:
 348 0194 AFF30080 		.align	3
 349              	.L10:
 350 0198 C4B12E6E 		.word	1848553924
 351 019c A3C11540 		.word	1075167651
 352 01a0 33333333 		.word	858993459
 353 01a4 33734C40 		.word	1078752051
 354 01a8 39454772 		.word	1917273401
 355 01ac F90FD53F 		.word	1070927865
 356 01b0 00000000 		.word	SampleArrayU
 357 01b4 00000000 		.word	SampleArrayI
 358 01b8 00000000 		.word	Re_volt
 359 01bc 00000000 		.word	Im_volt
 360 01c0 00000000 		.word	Re_Ampere
 361 01c4 00000000 		.word	Im_Ampere
 362 01c8 00000000 		.word	Abs_volt
 363 01cc 00000000 		.word	Abs_Ampere
 364 01d0 00000000 		.word	Amp_Volt
 365 01d4 00000000 		.word	RMS_Volt
 366 01d8 00000440 		.word	1074003968
 367 01dc 00000000 		.word	Amp_Ampere
 368 01e0 00000000 		.word	RMS_Ampere
 369 01e4 00000000 		.word	PF
 370 01e8 00000000 		.word	THD
 371              		.cfi_endproc
 372              	.LFE64:
 373              		.size	sampleAndCalc, .-sampleAndCalc
 374              		.global	__aeabi_d2uiz
 375 01ec AFF30080 		.section	.text.makeMSB,"ax",%progbits
 376              		.align	2
 377              		.global	makeMSB
 378              		.thumb
 379              		.thumb_func
 380              		.type	makeMSB, %function
ARM GAS  C:\Users\User\AppData\Local\Temp\ccSj4pu6.s 			page 9


 381              	makeMSB:
 382              	.LFB65:
  73:sample.c      **** 
  74:sample.c      **** uint8 makeMSB(double num)
  75:sample.c      **** {
 383              		.loc 1 75 0
 384              		.cfi_startproc
 385              		@ args = 0, pretend = 0, frame = 16
 386              		@ frame_needed = 1, uses_anonymous_args = 0
 387 0000 80B5     		push	{r7, lr}
 388              		.cfi_def_cfa_offset 8
 389              		.cfi_offset 7, -8
 390              		.cfi_offset 14, -4
 391 0002 84B0     		sub	sp, sp, #16
 392              		.cfi_def_cfa_offset 24
 393 0004 00AF     		add	r7, sp, #0
 394              		.cfi_def_cfa_register 7
 395 0006 C7E90001 		strd	r0, [r7]
  76:sample.c      ****     uint16 numInt = num;
 396              		.loc 1 76 0
 397 000a D7E90001 		ldrd	r0, [r7]
 398 000e FFF7FEFF 		bl	__aeabi_d2uiz
 399 0012 0346     		mov	r3, r0
 400 0014 FB81     		strh	r3, [r7, #14]	@ movhi
  77:sample.c      ****     
  78:sample.c      ****     return numInt >> 8;
 401              		.loc 1 78 0
 402 0016 FB89     		ldrh	r3, [r7, #14]
 403 0018 1B0A     		lsrs	r3, r3, #8
 404 001a 9BB2     		uxth	r3, r3
 405 001c DBB2     		uxtb	r3, r3
  79:sample.c      ****    
  80:sample.c      **** }
 406              		.loc 1 80 0
 407 001e 1846     		mov	r0, r3
 408 0020 1037     		adds	r7, r7, #16
 409              		.cfi_def_cfa_offset 8
 410 0022 BD46     		mov	sp, r7
 411              		.cfi_def_cfa_register 13
 412              		@ sp needed
 413 0024 80BD     		pop	{r7, pc}
 414              		.cfi_endproc
 415              	.LFE65:
 416              		.size	makeMSB, .-makeMSB
 417 0026 00BF     		.section	.text.makeLSB,"ax",%progbits
 418              		.align	2
 419              		.global	makeLSB
 420              		.thumb
 421              		.thumb_func
 422              		.type	makeLSB, %function
 423              	makeLSB:
 424              	.LFB66:
  81:sample.c      **** 
  82:sample.c      **** uint8 makeLSB (double num)
  83:sample.c      **** {
 425              		.loc 1 83 0
 426              		.cfi_startproc
ARM GAS  C:\Users\User\AppData\Local\Temp\ccSj4pu6.s 			page 10


 427              		@ args = 0, pretend = 0, frame = 16
 428              		@ frame_needed = 1, uses_anonymous_args = 0
 429 0000 80B5     		push	{r7, lr}
 430              		.cfi_def_cfa_offset 8
 431              		.cfi_offset 7, -8
 432              		.cfi_offset 14, -4
 433 0002 84B0     		sub	sp, sp, #16
 434              		.cfi_def_cfa_offset 24
 435 0004 00AF     		add	r7, sp, #0
 436              		.cfi_def_cfa_register 7
 437 0006 C7E90001 		strd	r0, [r7]
  84:sample.c      ****     uint16 numInt = num;
 438              		.loc 1 84 0
 439 000a D7E90001 		ldrd	r0, [r7]
 440 000e FFF7FEFF 		bl	__aeabi_d2uiz
 441 0012 0346     		mov	r3, r0
 442 0014 FB81     		strh	r3, [r7, #14]	@ movhi
  85:sample.c      ****     
  86:sample.c      ****     return numInt & 0x00FF;
 443              		.loc 1 86 0
 444 0016 FB89     		ldrh	r3, [r7, #14]	@ movhi
 445 0018 DBB2     		uxtb	r3, r3
  87:sample.c      **** }
 446              		.loc 1 87 0
 447 001a 1846     		mov	r0, r3
 448 001c 1037     		adds	r7, r7, #16
 449              		.cfi_def_cfa_offset 8
 450 001e BD46     		mov	sp, r7
 451              		.cfi_def_cfa_register 13
 452              		@ sp needed
 453 0020 80BD     		pop	{r7, pc}
 454              		.cfi_endproc
 455              	.LFE66:
 456              		.size	makeLSB, .-makeLSB
 457              		.global	__aeabi_dadd
 458              		.global	__aeabi_ddiv
 459 0022 00BF     		.section	.text.FFT,"ax",%progbits
 460              		.align	2
 461              		.global	FFT
 462              		.thumb
 463              		.thumb_func
 464              		.type	FFT, %function
 465              	FFT:
 466              	.LFB67:
  88:sample.c      **** 
  89:sample.c      **** 
  90:sample.c      **** 
  91:sample.c      **** //FFT.C
  92:sample.c      **** void FFT(long m,double *x,double *y, double *u)
  93:sample.c      **** {
 467              		.loc 1 93 0
 468              		.cfi_startproc
 469              		@ args = 0, pretend = 0, frame = 128
 470              		@ frame_needed = 1, uses_anonymous_args = 0
 471 0000 2DE9B043 		push	{r4, r5, r7, r8, r9, lr}
 472              		.cfi_def_cfa_offset 24
 473              		.cfi_offset 4, -24
ARM GAS  C:\Users\User\AppData\Local\Temp\ccSj4pu6.s 			page 11


 474              		.cfi_offset 5, -20
 475              		.cfi_offset 7, -16
 476              		.cfi_offset 8, -12
 477              		.cfi_offset 9, -8
 478              		.cfi_offset 14, -4
 479 0004 A0B0     		sub	sp, sp, #128
 480              		.cfi_def_cfa_offset 152
 481 0006 00AF     		add	r7, sp, #0
 482              		.cfi_def_cfa_register 7
 483 0008 F860     		str	r0, [r7, #12]
 484 000a B960     		str	r1, [r7, #8]
 485 000c 7A60     		str	r2, [r7, #4]
 486 000e 3B60     		str	r3, [r7]
  94:sample.c      ****    // dir:  forward (=1) o inverse (!=1) transform; 
  95:sample.c      ****    // m exponent;
  96:sample.c      ****    
  97:sample.c      ****    long n,i,i1,j,k,i2,l,l1,l2;
  98:sample.c      ****    double c1,c2,tx,ty,t1,t2,u1,u2,z;
  99:sample.c      **** 
 100:sample.c      ****    /* Calculate the number of points */
 101:sample.c      ****    n = 1;
 487              		.loc 1 101 0
 488 0010 0123     		movs	r3, #1
 489 0012 FB67     		str	r3, [r7, #124]
 102:sample.c      ****    for (i=0;i<m;i++) 
 490              		.loc 1 102 0
 491 0014 0023     		movs	r3, #0
 492 0016 BB67     		str	r3, [r7, #120]
 493 0018 05E0     		b	.L17
 494              	.L18:
 103:sample.c      ****       n *= 2;
 495              		.loc 1 103 0 discriminator 3
 496 001a FB6F     		ldr	r3, [r7, #124]
 497 001c 5B00     		lsls	r3, r3, #1
 498 001e FB67     		str	r3, [r7, #124]
 102:sample.c      ****    for (i=0;i<m;i++) 
 499              		.loc 1 102 0 discriminator 3
 500 0020 BB6F     		ldr	r3, [r7, #120]
 501 0022 0133     		adds	r3, r3, #1
 502 0024 BB67     		str	r3, [r7, #120]
 503              	.L17:
 102:sample.c      ****    for (i=0;i<m;i++) 
 504              		.loc 1 102 0 is_stmt 0 discriminator 1
 505 0026 BA6F     		ldr	r2, [r7, #120]
 506 0028 FB68     		ldr	r3, [r7, #12]
 507 002a 9A42     		cmp	r2, r3
 508 002c F5DB     		blt	.L18
 104:sample.c      **** 
 105:sample.c      ****    /* Do the bit reversal */
 106:sample.c      ****    i2 = n >> 1;
 509              		.loc 1 106 0 is_stmt 1
 510 002e FB6F     		ldr	r3, [r7, #124]
 511 0030 5B10     		asrs	r3, r3, #1
 512 0032 7B64     		str	r3, [r7, #68]
 107:sample.c      ****    j = 0;
 513              		.loc 1 107 0
 514 0034 0023     		movs	r3, #0
ARM GAS  C:\Users\User\AppData\Local\Temp\ccSj4pu6.s 			page 12


 515 0036 7B67     		str	r3, [r7, #116]
 108:sample.c      ****    for (i=0;i<n-1;i++) {
 516              		.loc 1 108 0
 517 0038 0023     		movs	r3, #0
 518 003a BB67     		str	r3, [r7, #120]
 519 003c 50E0     		b	.L19
 520              	.L23:
 109:sample.c      ****       if (i < j) {
 521              		.loc 1 109 0
 522 003e BA6F     		ldr	r2, [r7, #120]
 523 0040 7B6F     		ldr	r3, [r7, #116]
 524 0042 9A42     		cmp	r2, r3
 525 0044 37DA     		bge	.L20
 110:sample.c      ****          tx = x[i];
 526              		.loc 1 110 0
 527 0046 BB6F     		ldr	r3, [r7, #120]
 528 0048 DB00     		lsls	r3, r3, #3
 529 004a BA68     		ldr	r2, [r7, #8]
 530 004c 1344     		add	r3, r3, r2
 531 004e D3E90023 		ldrd	r2, [r3]
 532 0052 C7E90E23 		strd	r2, [r7, #56]
 111:sample.c      ****          ty = y[i];
 533              		.loc 1 111 0
 534 0056 BB6F     		ldr	r3, [r7, #120]
 535 0058 DB00     		lsls	r3, r3, #3
 536 005a 7A68     		ldr	r2, [r7, #4]
 537 005c 1344     		add	r3, r3, r2
 538 005e D3E90023 		ldrd	r2, [r3]
 539 0062 C7E90C23 		strd	r2, [r7, #48]
 112:sample.c      ****          x[i] = x[j];
 540              		.loc 1 112 0
 541 0066 BB6F     		ldr	r3, [r7, #120]
 542 0068 DB00     		lsls	r3, r3, #3
 543 006a BA68     		ldr	r2, [r7, #8]
 544 006c D118     		adds	r1, r2, r3
 545 006e 7B6F     		ldr	r3, [r7, #116]
 546 0070 DB00     		lsls	r3, r3, #3
 547 0072 BA68     		ldr	r2, [r7, #8]
 548 0074 1344     		add	r3, r3, r2
 549 0076 D3E90023 		ldrd	r2, [r3]
 550 007a C1E90023 		strd	r2, [r1]
 113:sample.c      ****          y[i] = y[j];
 551              		.loc 1 113 0
 552 007e BB6F     		ldr	r3, [r7, #120]
 553 0080 DB00     		lsls	r3, r3, #3
 554 0082 7A68     		ldr	r2, [r7, #4]
 555 0084 D118     		adds	r1, r2, r3
 556 0086 7B6F     		ldr	r3, [r7, #116]
 557 0088 DB00     		lsls	r3, r3, #3
 558 008a 7A68     		ldr	r2, [r7, #4]
 559 008c 1344     		add	r3, r3, r2
 560 008e D3E90023 		ldrd	r2, [r3]
 561 0092 C1E90023 		strd	r2, [r1]
 114:sample.c      ****          x[j] = tx;
 562              		.loc 1 114 0
 563 0096 7B6F     		ldr	r3, [r7, #116]
 564 0098 DB00     		lsls	r3, r3, #3
ARM GAS  C:\Users\User\AppData\Local\Temp\ccSj4pu6.s 			page 13


 565 009a BA68     		ldr	r2, [r7, #8]
 566 009c D118     		adds	r1, r2, r3
 567 009e D7E90E23 		ldrd	r2, [r7, #56]
 568 00a2 C1E90023 		strd	r2, [r1]
 115:sample.c      ****          y[j] = ty;
 569              		.loc 1 115 0
 570 00a6 7B6F     		ldr	r3, [r7, #116]
 571 00a8 DB00     		lsls	r3, r3, #3
 572 00aa 7A68     		ldr	r2, [r7, #4]
 573 00ac D118     		adds	r1, r2, r3
 574 00ae D7E90C23 		ldrd	r2, [r7, #48]
 575 00b2 C1E90023 		strd	r2, [r1]
 576              	.L20:
 116:sample.c      ****       }
 117:sample.c      ****       k = i2;
 577              		.loc 1 117 0
 578 00b6 7B6C     		ldr	r3, [r7, #68]
 579 00b8 3B67     		str	r3, [r7, #112]
 118:sample.c      ****       while (k <= j) {
 580              		.loc 1 118 0
 581 00ba 06E0     		b	.L21
 582              	.L22:
 119:sample.c      ****          j -= k;
 583              		.loc 1 119 0
 584 00bc 7A6F     		ldr	r2, [r7, #116]
 585 00be 3B6F     		ldr	r3, [r7, #112]
 586 00c0 D31A     		subs	r3, r2, r3
 587 00c2 7B67     		str	r3, [r7, #116]
 120:sample.c      ****          k >>= 1;
 588              		.loc 1 120 0
 589 00c4 3B6F     		ldr	r3, [r7, #112]
 590 00c6 5B10     		asrs	r3, r3, #1
 591 00c8 3B67     		str	r3, [r7, #112]
 592              	.L21:
 118:sample.c      ****       while (k <= j) {
 593              		.loc 1 118 0
 594 00ca 3A6F     		ldr	r2, [r7, #112]
 595 00cc 7B6F     		ldr	r3, [r7, #116]
 596 00ce 9A42     		cmp	r2, r3
 597 00d0 F4DD     		ble	.L22
 121:sample.c      ****       }
 122:sample.c      ****       j += k;
 598              		.loc 1 122 0 discriminator 2
 599 00d2 7A6F     		ldr	r2, [r7, #116]
 600 00d4 3B6F     		ldr	r3, [r7, #112]
 601 00d6 1344     		add	r3, r3, r2
 602 00d8 7B67     		str	r3, [r7, #116]
 108:sample.c      ****       if (i < j) {
 603              		.loc 1 108 0 discriminator 2
 604 00da BB6F     		ldr	r3, [r7, #120]
 605 00dc 0133     		adds	r3, r3, #1
 606 00de BB67     		str	r3, [r7, #120]
 607              	.L19:
 108:sample.c      ****       if (i < j) {
 608              		.loc 1 108 0 is_stmt 0 discriminator 1
 609 00e0 FB6F     		ldr	r3, [r7, #124]
 610 00e2 5A1E     		subs	r2, r3, #1
ARM GAS  C:\Users\User\AppData\Local\Temp\ccSj4pu6.s 			page 14


 611 00e4 BB6F     		ldr	r3, [r7, #120]
 612 00e6 9A42     		cmp	r2, r3
 613 00e8 A9DC     		bgt	.L23
 123:sample.c      ****    }
 124:sample.c      **** 
 125:sample.c      ****    /* Compute the FFT */
 126:sample.c      ****    c1 = -1.0; 
 614              		.loc 1 126 0 is_stmt 1
 615 00ea 4FF00002 		mov	r2, #0
 616 00ee A54B     		ldr	r3, .L32
 617 00f0 C7E91823 		strd	r2, [r7, #96]
 127:sample.c      ****    c2 = 0.0;
 618              		.loc 1 127 0
 619 00f4 4FF00002 		mov	r2, #0
 620 00f8 4FF00003 		mov	r3, #0
 621 00fc C7E91623 		strd	r2, [r7, #88]
 128:sample.c      ****    l2 = 1;
 622              		.loc 1 128 0
 623 0100 0123     		movs	r3, #1
 624 0102 BB66     		str	r3, [r7, #104]
 129:sample.c      ****    for (l=0;l<m;l++) {
 625              		.loc 1 129 0
 626 0104 0023     		movs	r3, #0
 627 0106 FB66     		str	r3, [r7, #108]
 628 0108 33E1     		b	.L24
 629              	.L29:
 130:sample.c      ****       l1 = l2;
 630              		.loc 1 130 0
 631 010a BB6E     		ldr	r3, [r7, #104]
 632 010c FB62     		str	r3, [r7, #44]
 131:sample.c      ****       l2 <<= 1;
 633              		.loc 1 131 0
 634 010e BB6E     		ldr	r3, [r7, #104]
 635 0110 5B00     		lsls	r3, r3, #1
 636 0112 BB66     		str	r3, [r7, #104]
 132:sample.c      ****       u1 = 1.0; 
 637              		.loc 1 132 0
 638 0114 4FF00002 		mov	r2, #0
 639 0118 9B4B     		ldr	r3, .L32+4
 640 011a C7E91423 		strd	r2, [r7, #80]
 133:sample.c      ****       u2 = 0.0;
 641              		.loc 1 133 0
 642 011e 4FF00002 		mov	r2, #0
 643 0122 4FF00003 		mov	r3, #0
 644 0126 C7E91223 		strd	r2, [r7, #72]
 134:sample.c      ****       for (j=0;j<l1;j++) {
 645              		.loc 1 134 0
 646 012a 0023     		movs	r3, #0
 647 012c 7B67     		str	r3, [r7, #116]
 648 012e E6E0     		b	.L25
 649              	.L28:
 135:sample.c      ****          for (i=j;i<n;i+=l2) {
 650              		.loc 1 135 0
 651 0130 7B6F     		ldr	r3, [r7, #116]
 652 0132 BB67     		str	r3, [r7, #120]
 653 0134 A3E0     		b	.L26
 654              	.L27:
ARM GAS  C:\Users\User\AppData\Local\Temp\ccSj4pu6.s 			page 15


 136:sample.c      ****             i1 = i + l1;
 655              		.loc 1 136 0 discriminator 3
 656 0136 BA6F     		ldr	r2, [r7, #120]
 657 0138 FB6A     		ldr	r3, [r7, #44]
 658 013a 1344     		add	r3, r3, r2
 659 013c BB62     		str	r3, [r7, #40]
 137:sample.c      ****             t1 = u1 * x[i1] - u2 * y[i1];
 660              		.loc 1 137 0 discriminator 3
 661 013e BB6A     		ldr	r3, [r7, #40]
 662 0140 DB00     		lsls	r3, r3, #3
 663 0142 BA68     		ldr	r2, [r7, #8]
 664 0144 1344     		add	r3, r3, r2
 665 0146 D3E90023 		ldrd	r2, [r3]
 666 014a 1046     		mov	r0, r2
 667 014c 1946     		mov	r1, r3
 668 014e D7E91423 		ldrd	r2, [r7, #80]
 669 0152 FFF7FEFF 		bl	__aeabi_dmul
 670 0156 0246     		mov	r2, r0
 671 0158 0B46     		mov	r3, r1
 672 015a 1446     		mov	r4, r2
 673 015c 1D46     		mov	r5, r3
 674 015e BB6A     		ldr	r3, [r7, #40]
 675 0160 DB00     		lsls	r3, r3, #3
 676 0162 7A68     		ldr	r2, [r7, #4]
 677 0164 1344     		add	r3, r3, r2
 678 0166 D3E90023 		ldrd	r2, [r3]
 679 016a 1046     		mov	r0, r2
 680 016c 1946     		mov	r1, r3
 681 016e D7E91223 		ldrd	r2, [r7, #72]
 682 0172 FFF7FEFF 		bl	__aeabi_dmul
 683 0176 0246     		mov	r2, r0
 684 0178 0B46     		mov	r3, r1
 685 017a 2046     		mov	r0, r4
 686 017c 2946     		mov	r1, r5
 687 017e FFF7FEFF 		bl	__aeabi_dsub
 688 0182 0246     		mov	r2, r0
 689 0184 0B46     		mov	r3, r1
 690 0186 C7E90823 		strd	r2, [r7, #32]
 138:sample.c      ****             t2 = u1 * y[i1] + u2 * x[i1];
 691              		.loc 1 138 0 discriminator 3
 692 018a BB6A     		ldr	r3, [r7, #40]
 693 018c DB00     		lsls	r3, r3, #3
 694 018e 7A68     		ldr	r2, [r7, #4]
 695 0190 1344     		add	r3, r3, r2
 696 0192 D3E90023 		ldrd	r2, [r3]
 697 0196 1046     		mov	r0, r2
 698 0198 1946     		mov	r1, r3
 699 019a D7E91423 		ldrd	r2, [r7, #80]
 700 019e FFF7FEFF 		bl	__aeabi_dmul
 701 01a2 0246     		mov	r2, r0
 702 01a4 0B46     		mov	r3, r1
 703 01a6 1446     		mov	r4, r2
 704 01a8 1D46     		mov	r5, r3
 705 01aa BB6A     		ldr	r3, [r7, #40]
 706 01ac DB00     		lsls	r3, r3, #3
 707 01ae BA68     		ldr	r2, [r7, #8]
 708 01b0 1344     		add	r3, r3, r2
ARM GAS  C:\Users\User\AppData\Local\Temp\ccSj4pu6.s 			page 16


 709 01b2 D3E90023 		ldrd	r2, [r3]
 710 01b6 1046     		mov	r0, r2
 711 01b8 1946     		mov	r1, r3
 712 01ba D7E91223 		ldrd	r2, [r7, #72]
 713 01be FFF7FEFF 		bl	__aeabi_dmul
 714 01c2 0246     		mov	r2, r0
 715 01c4 0B46     		mov	r3, r1
 716 01c6 2046     		mov	r0, r4
 717 01c8 2946     		mov	r1, r5
 718 01ca FFF7FEFF 		bl	__aeabi_dadd
 719 01ce 0246     		mov	r2, r0
 720 01d0 0B46     		mov	r3, r1
 721 01d2 C7E90623 		strd	r2, [r7, #24]
 139:sample.c      ****             x[i1] = x[i] - t1; 
 722              		.loc 1 139 0 discriminator 3
 723 01d6 BB6A     		ldr	r3, [r7, #40]
 724 01d8 DB00     		lsls	r3, r3, #3
 725 01da BA68     		ldr	r2, [r7, #8]
 726 01dc D418     		adds	r4, r2, r3
 727 01de BB6F     		ldr	r3, [r7, #120]
 728 01e0 DB00     		lsls	r3, r3, #3
 729 01e2 BA68     		ldr	r2, [r7, #8]
 730 01e4 1344     		add	r3, r3, r2
 731 01e6 D3E90023 		ldrd	r2, [r3]
 732 01ea 1046     		mov	r0, r2
 733 01ec 1946     		mov	r1, r3
 734 01ee D7E90823 		ldrd	r2, [r7, #32]
 735 01f2 FFF7FEFF 		bl	__aeabi_dsub
 736 01f6 0246     		mov	r2, r0
 737 01f8 0B46     		mov	r3, r1
 738 01fa C4E90023 		strd	r2, [r4]
 140:sample.c      ****             y[i1] = y[i] - t2;
 739              		.loc 1 140 0 discriminator 3
 740 01fe BB6A     		ldr	r3, [r7, #40]
 741 0200 DB00     		lsls	r3, r3, #3
 742 0202 7A68     		ldr	r2, [r7, #4]
 743 0204 D418     		adds	r4, r2, r3
 744 0206 BB6F     		ldr	r3, [r7, #120]
 745 0208 DB00     		lsls	r3, r3, #3
 746 020a 7A68     		ldr	r2, [r7, #4]
 747 020c 1344     		add	r3, r3, r2
 748 020e D3E90023 		ldrd	r2, [r3]
 749 0212 1046     		mov	r0, r2
 750 0214 1946     		mov	r1, r3
 751 0216 D7E90623 		ldrd	r2, [r7, #24]
 752 021a FFF7FEFF 		bl	__aeabi_dsub
 753 021e 0246     		mov	r2, r0
 754 0220 0B46     		mov	r3, r1
 755 0222 C4E90023 		strd	r2, [r4]
 141:sample.c      ****             x[i] += t1;
 756              		.loc 1 141 0 discriminator 3
 757 0226 BB6F     		ldr	r3, [r7, #120]
 758 0228 DB00     		lsls	r3, r3, #3
 759 022a BA68     		ldr	r2, [r7, #8]
 760 022c D418     		adds	r4, r2, r3
 761 022e BB6F     		ldr	r3, [r7, #120]
 762 0230 DB00     		lsls	r3, r3, #3
ARM GAS  C:\Users\User\AppData\Local\Temp\ccSj4pu6.s 			page 17


 763 0232 BA68     		ldr	r2, [r7, #8]
 764 0234 1344     		add	r3, r3, r2
 765 0236 D3E90023 		ldrd	r2, [r3]
 766 023a 1046     		mov	r0, r2
 767 023c 1946     		mov	r1, r3
 768 023e D7E90823 		ldrd	r2, [r7, #32]
 769 0242 FFF7FEFF 		bl	__aeabi_dadd
 770 0246 0246     		mov	r2, r0
 771 0248 0B46     		mov	r3, r1
 772 024a C4E90023 		strd	r2, [r4]
 142:sample.c      ****             y[i] += t2;
 773              		.loc 1 142 0 discriminator 3
 774 024e BB6F     		ldr	r3, [r7, #120]
 775 0250 DB00     		lsls	r3, r3, #3
 776 0252 7A68     		ldr	r2, [r7, #4]
 777 0254 D418     		adds	r4, r2, r3
 778 0256 BB6F     		ldr	r3, [r7, #120]
 779 0258 DB00     		lsls	r3, r3, #3
 780 025a 7A68     		ldr	r2, [r7, #4]
 781 025c 1344     		add	r3, r3, r2
 782 025e D3E90023 		ldrd	r2, [r3]
 783 0262 1046     		mov	r0, r2
 784 0264 1946     		mov	r1, r3
 785 0266 D7E90623 		ldrd	r2, [r7, #24]
 786 026a FFF7FEFF 		bl	__aeabi_dadd
 787 026e 0246     		mov	r2, r0
 788 0270 0B46     		mov	r3, r1
 789 0272 C4E90023 		strd	r2, [r4]
 135:sample.c      ****             i1 = i + l1;
 790              		.loc 1 135 0 discriminator 3
 791 0276 BA6F     		ldr	r2, [r7, #120]
 792 0278 BB6E     		ldr	r3, [r7, #104]
 793 027a 1344     		add	r3, r3, r2
 794 027c BB67     		str	r3, [r7, #120]
 795              	.L26:
 135:sample.c      ****             i1 = i + l1;
 796              		.loc 1 135 0 is_stmt 0 discriminator 1
 797 027e BA6F     		ldr	r2, [r7, #120]
 798 0280 FB6F     		ldr	r3, [r7, #124]
 799 0282 9A42     		cmp	r2, r3
 800 0284 FFF657AF 		blt	.L27
 143:sample.c      ****          }
 144:sample.c      ****          z =  u1 * c1 - u2 * c2;
 801              		.loc 1 144 0 is_stmt 1 discriminator 2
 802 0288 D7E91401 		ldrd	r0, [r7, #80]
 803 028c D7E91823 		ldrd	r2, [r7, #96]
 804 0290 FFF7FEFF 		bl	__aeabi_dmul
 805 0294 0246     		mov	r2, r0
 806 0296 0B46     		mov	r3, r1
 807 0298 1446     		mov	r4, r2
 808 029a 1D46     		mov	r5, r3
 809 029c D7E91201 		ldrd	r0, [r7, #72]
 810 02a0 D7E91623 		ldrd	r2, [r7, #88]
 811 02a4 FFF7FEFF 		bl	__aeabi_dmul
 812 02a8 0246     		mov	r2, r0
 813 02aa 0B46     		mov	r3, r1
 814 02ac 2046     		mov	r0, r4
ARM GAS  C:\Users\User\AppData\Local\Temp\ccSj4pu6.s 			page 18


 815 02ae 2946     		mov	r1, r5
 816 02b0 FFF7FEFF 		bl	__aeabi_dsub
 817 02b4 0246     		mov	r2, r0
 818 02b6 0B46     		mov	r3, r1
 819 02b8 C7E90423 		strd	r2, [r7, #16]
 145:sample.c      ****          u2 = u1 * c2 + u2 * c1;
 820              		.loc 1 145 0 discriminator 2
 821 02bc D7E91401 		ldrd	r0, [r7, #80]
 822 02c0 D7E91623 		ldrd	r2, [r7, #88]
 823 02c4 FFF7FEFF 		bl	__aeabi_dmul
 824 02c8 0246     		mov	r2, r0
 825 02ca 0B46     		mov	r3, r1
 826 02cc 1446     		mov	r4, r2
 827 02ce 1D46     		mov	r5, r3
 828 02d0 D7E91201 		ldrd	r0, [r7, #72]
 829 02d4 D7E91823 		ldrd	r2, [r7, #96]
 830 02d8 FFF7FEFF 		bl	__aeabi_dmul
 831 02dc 0246     		mov	r2, r0
 832 02de 0B46     		mov	r3, r1
 833 02e0 2046     		mov	r0, r4
 834 02e2 2946     		mov	r1, r5
 835 02e4 FFF7FEFF 		bl	__aeabi_dadd
 836 02e8 0246     		mov	r2, r0
 837 02ea 0B46     		mov	r3, r1
 838 02ec C7E91223 		strd	r2, [r7, #72]
 146:sample.c      ****          u1 = z;
 839              		.loc 1 146 0 discriminator 2
 840 02f0 D7E90423 		ldrd	r2, [r7, #16]
 841 02f4 C7E91423 		strd	r2, [r7, #80]
 134:sample.c      ****          for (i=j;i<n;i+=l2) {
 842              		.loc 1 134 0 discriminator 2
 843 02f8 7B6F     		ldr	r3, [r7, #116]
 844 02fa 0133     		adds	r3, r3, #1
 845 02fc 7B67     		str	r3, [r7, #116]
 846              	.L25:
 134:sample.c      ****          for (i=j;i<n;i+=l2) {
 847              		.loc 1 134 0 is_stmt 0 discriminator 1
 848 02fe 7A6F     		ldr	r2, [r7, #116]
 849 0300 FB6A     		ldr	r3, [r7, #44]
 850 0302 9A42     		cmp	r2, r3
 851 0304 FFF614AF 		blt	.L28
 147:sample.c      ****       }
 148:sample.c      ****       c2 = sqrt((1.0 - c1) / 2.0);
 852              		.loc 1 148 0 is_stmt 1 discriminator 2
 853 0308 4FF00000 		mov	r0, #0
 854 030c 1E49     		ldr	r1, .L32+4
 855 030e D7E91823 		ldrd	r2, [r7, #96]
 856 0312 FFF7FEFF 		bl	__aeabi_dsub
 857 0316 0246     		mov	r2, r0
 858 0318 0B46     		mov	r3, r1
 859 031a 1046     		mov	r0, r2
 860 031c 1946     		mov	r1, r3
 861 031e 4FF00002 		mov	r2, #0
 862 0322 4FF08043 		mov	r3, #1073741824
 863 0326 FFF7FEFF 		bl	__aeabi_ddiv
 864 032a 0246     		mov	r2, r0
 865 032c 0B46     		mov	r3, r1
ARM GAS  C:\Users\User\AppData\Local\Temp\ccSj4pu6.s 			page 19


 866 032e 1046     		mov	r0, r2
 867 0330 1946     		mov	r1, r3
 868 0332 FFF7FEFF 		bl	sqrt
 869 0336 C7E91601 		strd	r0, [r7, #88]
 149:sample.c      ****       c1 = sqrt((1.0 + c1) / 2.0);
 870              		.loc 1 149 0 discriminator 2
 871 033a D7E91801 		ldrd	r0, [r7, #96]
 872 033e 4FF00002 		mov	r2, #0
 873 0342 114B     		ldr	r3, .L32+4
 874 0344 FFF7FEFF 		bl	__aeabi_dadd
 875 0348 0246     		mov	r2, r0
 876 034a 0B46     		mov	r3, r1
 877 034c 1046     		mov	r0, r2
 878 034e 1946     		mov	r1, r3
 879 0350 4FF00002 		mov	r2, #0
 880 0354 4FF08043 		mov	r3, #1073741824
 881 0358 FFF7FEFF 		bl	__aeabi_ddiv
 882 035c 0246     		mov	r2, r0
 883 035e 0B46     		mov	r3, r1
 884 0360 1046     		mov	r0, r2
 885 0362 1946     		mov	r1, r3
 886 0364 FFF7FEFF 		bl	sqrt
 887 0368 C7E91801 		strd	r0, [r7, #96]
 129:sample.c      ****       l1 = l2;
 888              		.loc 1 129 0 discriminator 2
 889 036c FB6E     		ldr	r3, [r7, #108]
 890 036e 0133     		adds	r3, r3, #1
 891 0370 FB66     		str	r3, [r7, #108]
 892              	.L24:
 129:sample.c      ****       l1 = l2;
 893              		.loc 1 129 0 is_stmt 0 discriminator 1
 894 0372 FA6E     		ldr	r2, [r7, #108]
 895 0374 FB68     		ldr	r3, [r7, #12]
 896 0376 9A42     		cmp	r2, r3
 897 0378 FFF6C7AE 		blt	.L29
 150:sample.c      ****    }
 151:sample.c      **** 
 152:sample.c      ****    
 153:sample.c      ****    for(i=0;i<N_points;i++)
 898              		.loc 1 153 0 is_stmt 1
 899 037c 0023     		movs	r3, #0
 900 037e BB67     		str	r3, [r7, #120]
 901 0380 4AE0     		b	.L30
 902              	.L33:
 903 0382 00BF     		.align	2
 904              	.L32:
 905 0384 0000F0BF 		.word	-1074790400
 906 0388 0000F03F 		.word	1072693248
 907              	.L31:
 154:sample.c      ****    {
 155:sample.c      ****     /* Absolute value */
 156:sample.c      ****    u[i]=2*sqrt((x[i]*x[i])+(y[i]*y[i]))/N_points;  
 908              		.loc 1 156 0 discriminator 3
 909 038c BB6F     		ldr	r3, [r7, #120]
 910 038e DB00     		lsls	r3, r3, #3
 911 0390 3A68     		ldr	r2, [r7]
 912 0392 D418     		adds	r4, r2, r3
ARM GAS  C:\Users\User\AppData\Local\Temp\ccSj4pu6.s 			page 20


 913 0394 BB6F     		ldr	r3, [r7, #120]
 914 0396 DB00     		lsls	r3, r3, #3
 915 0398 BA68     		ldr	r2, [r7, #8]
 916 039a 1344     		add	r3, r3, r2
 917 039c D3E90001 		ldrd	r0, [r3]
 918 03a0 BB6F     		ldr	r3, [r7, #120]
 919 03a2 DB00     		lsls	r3, r3, #3
 920 03a4 BA68     		ldr	r2, [r7, #8]
 921 03a6 1344     		add	r3, r3, r2
 922 03a8 D3E90023 		ldrd	r2, [r3]
 923 03ac FFF7FEFF 		bl	__aeabi_dmul
 924 03b0 0246     		mov	r2, r0
 925 03b2 0B46     		mov	r3, r1
 926 03b4 9046     		mov	r8, r2
 927 03b6 9946     		mov	r9, r3
 928 03b8 BB6F     		ldr	r3, [r7, #120]
 929 03ba DB00     		lsls	r3, r3, #3
 930 03bc 7A68     		ldr	r2, [r7, #4]
 931 03be 1344     		add	r3, r3, r2
 932 03c0 D3E90001 		ldrd	r0, [r3]
 933 03c4 BB6F     		ldr	r3, [r7, #120]
 934 03c6 DB00     		lsls	r3, r3, #3
 935 03c8 7A68     		ldr	r2, [r7, #4]
 936 03ca 1344     		add	r3, r3, r2
 937 03cc D3E90023 		ldrd	r2, [r3]
 938 03d0 FFF7FEFF 		bl	__aeabi_dmul
 939 03d4 0246     		mov	r2, r0
 940 03d6 0B46     		mov	r3, r1
 941 03d8 4046     		mov	r0, r8
 942 03da 4946     		mov	r1, r9
 943 03dc FFF7FEFF 		bl	__aeabi_dadd
 944 03e0 0246     		mov	r2, r0
 945 03e2 0B46     		mov	r3, r1
 946 03e4 1046     		mov	r0, r2
 947 03e6 1946     		mov	r1, r3
 948 03e8 FFF7FEFF 		bl	sqrt
 949 03ec 0246     		mov	r2, r0
 950 03ee 0B46     		mov	r3, r1
 951 03f0 1046     		mov	r0, r2
 952 03f2 1946     		mov	r1, r3
 953 03f4 FFF7FEFF 		bl	__aeabi_dadd
 954 03f8 0246     		mov	r2, r0
 955 03fa 0B46     		mov	r3, r1
 956 03fc 1046     		mov	r0, r2
 957 03fe 1946     		mov	r1, r3
 958 0400 4FF00002 		mov	r2, #0
 959 0404 084B     		ldr	r3, .L34
 960 0406 FFF7FEFF 		bl	__aeabi_ddiv
 961 040a 0246     		mov	r2, r0
 962 040c 0B46     		mov	r3, r1
 963 040e C4E90023 		strd	r2, [r4]
 153:sample.c      ****    {
 964              		.loc 1 153 0 discriminator 3
 965 0412 BB6F     		ldr	r3, [r7, #120]
 966 0414 0133     		adds	r3, r3, #1
 967 0416 BB67     		str	r3, [r7, #120]
 968              	.L30:
ARM GAS  C:\Users\User\AppData\Local\Temp\ccSj4pu6.s 			page 21


 153:sample.c      ****    {
 969              		.loc 1 153 0 is_stmt 0 discriminator 1
 970 0418 BB6F     		ldr	r3, [r7, #120]
 971 041a 3F2B     		cmp	r3, #63
 972 041c B6DD     		ble	.L31
 157:sample.c      ****    }
 158:sample.c      **** }
 973              		.loc 1 158 0 is_stmt 1
 974 041e 8037     		adds	r7, r7, #128
 975              		.cfi_def_cfa_offset 24
 976 0420 BD46     		mov	sp, r7
 977              		.cfi_def_cfa_register 13
 978              		@ sp needed
 979 0422 BDE8B083 		pop	{r4, r5, r7, r8, r9, pc}
 980              	.L35:
 981 0426 00BF     		.align	2
 982              	.L34:
 983 0428 00005040 		.word	1078984704
 984              		.cfi_endproc
 985              	.LFE67:
 986              		.size	FFT, .-FFT
 987              		.section	.text.calculate_50Hz_Amp,"ax",%progbits
 988              		.align	2
 989              		.global	calculate_50Hz_Amp
 990              		.thumb
 991              		.thumb_func
 992              		.type	calculate_50Hz_Amp, %function
 993              	calculate_50Hz_Amp:
 994              	.LFB68:
 159:sample.c      **** 
 160:sample.c      **** double calculate_50Hz_Amp(double *u)
 161:sample.c      **** {
 995              		.loc 1 161 0
 996              		.cfi_startproc
 997              		@ args = 0, pretend = 0, frame = 8
 998              		@ frame_needed = 1, uses_anonymous_args = 0
 999              		@ link register save eliminated.
 1000 0000 80B4     		push	{r7}
 1001              		.cfi_def_cfa_offset 4
 1002              		.cfi_offset 7, -4
 1003 0002 83B0     		sub	sp, sp, #12
 1004              		.cfi_def_cfa_offset 16
 1005 0004 00AF     		add	r7, sp, #0
 1006              		.cfi_def_cfa_register 7
 1007 0006 7860     		str	r0, [r7, #4]
 162:sample.c      ****     return u[1];  
 1008              		.loc 1 162 0
 1009 0008 7B68     		ldr	r3, [r7, #4]
 1010 000a D3E90223 		ldrd	r2, [r3, #8]
 163:sample.c      **** }
 1011              		.loc 1 163 0
 1012 000e 1046     		mov	r0, r2
 1013 0010 1946     		mov	r1, r3
 1014 0012 0C37     		adds	r7, r7, #12
 1015              		.cfi_def_cfa_offset 4
 1016 0014 BD46     		mov	sp, r7
 1017              		.cfi_def_cfa_register 13
ARM GAS  C:\Users\User\AppData\Local\Temp\ccSj4pu6.s 			page 22


 1018              		@ sp needed
 1019 0016 5DF8047B 		ldr	r7, [sp], #4
 1020              		.cfi_restore 7
 1021              		.cfi_def_cfa_offset 0
 1022 001a 7047     		bx	lr
 1023              		.cfi_endproc
 1024              	.LFE68:
 1025              		.size	calculate_50Hz_Amp, .-calculate_50Hz_Amp
 1026              		.section	.text.calculate_50Hz_RMS,"ax",%progbits
 1027              		.align	2
 1028              		.global	calculate_50Hz_RMS
 1029              		.thumb
 1030              		.thumb_func
 1031              		.type	calculate_50Hz_RMS, %function
 1032              	calculate_50Hz_RMS:
 1033              	.LFB69:
 164:sample.c      **** 
 165:sample.c      **** double calculate_50Hz_RMS(double *u)
 166:sample.c      **** {
 1034              		.loc 1 166 0
 1035              		.cfi_startproc
 1036              		@ args = 0, pretend = 0, frame = 8
 1037              		@ frame_needed = 1, uses_anonymous_args = 0
 1038 0000 80B5     		push	{r7, lr}
 1039              		.cfi_def_cfa_offset 8
 1040              		.cfi_offset 7, -8
 1041              		.cfi_offset 14, -4
 1042 0002 82B0     		sub	sp, sp, #8
 1043              		.cfi_def_cfa_offset 16
 1044 0004 00AF     		add	r7, sp, #0
 1045              		.cfi_def_cfa_register 7
 1046 0006 7860     		str	r0, [r7, #4]
 167:sample.c      ****     return u[1]/sqrt(2);  
 1047              		.loc 1 167 0
 1048 0008 7B68     		ldr	r3, [r7, #4]
 1049 000a 0833     		adds	r3, r3, #8
 1050 000c D3E90023 		ldrd	r2, [r3]
 1051 0010 1046     		mov	r0, r2
 1052 0012 1946     		mov	r1, r3
 1053 0014 06A3     		adr	r3, .L40
 1054 0016 D3E90023 		ldrd	r2, [r3]
 1055 001a FFF7FEFF 		bl	__aeabi_ddiv
 1056 001e 0246     		mov	r2, r0
 1057 0020 0B46     		mov	r3, r1
 168:sample.c      **** }
 1058              		.loc 1 168 0
 1059 0022 1046     		mov	r0, r2
 1060 0024 1946     		mov	r1, r3
 1061 0026 0837     		adds	r7, r7, #8
 1062              		.cfi_def_cfa_offset 8
 1063 0028 BD46     		mov	sp, r7
 1064              		.cfi_def_cfa_register 13
 1065              		@ sp needed
 1066 002a 80BD     		pop	{r7, pc}
 1067              	.L41:
 1068 002c AFF30080 		.align	3
 1069              	.L40:
ARM GAS  C:\Users\User\AppData\Local\Temp\ccSj4pu6.s 			page 23


 1070 0030 CD3B7F66 		.word	1719614413
 1071 0034 9EA0F63F 		.word	1073127582
 1072              		.cfi_endproc
 1073              	.LFE69:
 1074              		.size	calculate_50Hz_RMS, .-calculate_50Hz_RMS
 1075              		.section	.text.calculate_50Hz_PF,"ax",%progbits
 1076              		.align	2
 1077              		.global	calculate_50Hz_PF
 1078              		.thumb
 1079              		.thumb_func
 1080              		.type	calculate_50Hz_PF, %function
 1081              	calculate_50Hz_PF:
 1082              	.LFB70:
 169:sample.c      **** 
 170:sample.c      **** double calculate_50Hz_PF()
 171:sample.c      **** {
 1083              		.loc 1 171 0
 1084              		.cfi_startproc
 1085              		@ args = 0, pretend = 0, frame = 16
 1086              		@ frame_needed = 1, uses_anonymous_args = 0
 1087 0000 80B5     		push	{r7, lr}
 1088              		.cfi_def_cfa_offset 8
 1089              		.cfi_offset 7, -8
 1090              		.cfi_offset 14, -4
 1091 0002 84B0     		sub	sp, sp, #16
 1092              		.cfi_def_cfa_offset 24
 1093 0004 00AF     		add	r7, sp, #0
 1094              		.cfi_def_cfa_register 7
 172:sample.c      ****     double angle_Volt = atan(Im_volt[1]/Re_volt[1]);
 1095              		.loc 1 172 0
 1096 0006 194B     		ldr	r3, .L44
 1097 0008 D3E90201 		ldrd	r0, [r3, #8]
 1098 000c 184B     		ldr	r3, .L44+4
 1099 000e D3E90223 		ldrd	r2, [r3, #8]
 1100 0012 FFF7FEFF 		bl	__aeabi_ddiv
 1101 0016 0246     		mov	r2, r0
 1102 0018 0B46     		mov	r3, r1
 1103 001a 1046     		mov	r0, r2
 1104 001c 1946     		mov	r1, r3
 1105 001e FFF7FEFF 		bl	atan
 1106 0022 C7E90201 		strd	r0, [r7, #8]
 173:sample.c      ****     double angle_Ampere = atan(Im_Ampere[1]/Re_Ampere[1]);
 1107              		.loc 1 173 0
 1108 0026 134B     		ldr	r3, .L44+8
 1109 0028 D3E90201 		ldrd	r0, [r3, #8]
 1110 002c 124B     		ldr	r3, .L44+12
 1111 002e D3E90223 		ldrd	r2, [r3, #8]
 1112 0032 FFF7FEFF 		bl	__aeabi_ddiv
 1113 0036 0246     		mov	r2, r0
 1114 0038 0B46     		mov	r3, r1
 1115 003a 1046     		mov	r0, r2
 1116 003c 1946     		mov	r1, r3
 1117 003e FFF7FEFF 		bl	atan
 1118 0042 C7E90001 		strd	r0, [r7]
 174:sample.c      ****     
 175:sample.c      ****     return cos(angle_Ampere-angle_Volt);
 1119              		.loc 1 175 0
ARM GAS  C:\Users\User\AppData\Local\Temp\ccSj4pu6.s 			page 24


 1120 0046 D7E90001 		ldrd	r0, [r7]
 1121 004a D7E90223 		ldrd	r2, [r7, #8]
 1122 004e FFF7FEFF 		bl	__aeabi_dsub
 1123 0052 0246     		mov	r2, r0
 1124 0054 0B46     		mov	r3, r1
 1125 0056 1046     		mov	r0, r2
 1126 0058 1946     		mov	r1, r3
 1127 005a FFF7FEFF 		bl	cos
 1128 005e 0246     		mov	r2, r0
 1129 0060 0B46     		mov	r3, r1
 176:sample.c      ****     
 177:sample.c      **** }
 1130              		.loc 1 177 0
 1131 0062 1046     		mov	r0, r2
 1132 0064 1946     		mov	r1, r3
 1133 0066 1037     		adds	r7, r7, #16
 1134              		.cfi_def_cfa_offset 8
 1135 0068 BD46     		mov	sp, r7
 1136              		.cfi_def_cfa_register 13
 1137              		@ sp needed
 1138 006a 80BD     		pop	{r7, pc}
 1139              	.L45:
 1140              		.align	2
 1141              	.L44:
 1142 006c 00000000 		.word	Im_volt
 1143 0070 00000000 		.word	Re_volt
 1144 0074 00000000 		.word	Im_Ampere
 1145 0078 00000000 		.word	Re_Ampere
 1146              		.cfi_endproc
 1147              	.LFE70:
 1148              		.size	calculate_50Hz_PF, .-calculate_50Hz_PF
 1149              		.section	.text.calculate_THD,"ax",%progbits
 1150              		.align	2
 1151              		.global	calculate_THD
 1152              		.thumb
 1153              		.thumb_func
 1154              		.type	calculate_THD, %function
 1155              	calculate_THD:
 1156              	.LFB71:
 178:sample.c      **** 
 179:sample.c      **** double calculate_THD()
 180:sample.c      **** {
 1157              		.loc 1 180 0
 1158              		.cfi_startproc
 1159              		@ args = 0, pretend = 0, frame = 0
 1160              		@ frame_needed = 1, uses_anonymous_args = 0
 1161 0000 B0B5     		push	{r4, r5, r7, lr}
 1162              		.cfi_def_cfa_offset 16
 1163              		.cfi_offset 4, -16
 1164              		.cfi_offset 5, -12
 1165              		.cfi_offset 7, -8
 1166              		.cfi_offset 14, -4
 1167 0002 00AF     		add	r7, sp, #0
 1168              		.cfi_def_cfa_register 7
 181:sample.c      ****    return sqrt(Abs_volt[2]*Abs_volt[2]+Abs_volt[3]*Abs_volt[3]+Abs_volt[4]*Abs_volt[4]+Abs_volt[5]*
 1169              		.loc 1 181 0
 1170 0004 264B     		ldr	r3, .L48
ARM GAS  C:\Users\User\AppData\Local\Temp\ccSj4pu6.s 			page 25


 1171 0006 D3E90401 		ldrd	r0, [r3, #16]
 1172 000a 254B     		ldr	r3, .L48
 1173 000c D3E90423 		ldrd	r2, [r3, #16]
 1174 0010 FFF7FEFF 		bl	__aeabi_dmul
 1175 0014 0246     		mov	r2, r0
 1176 0016 0B46     		mov	r3, r1
 1177 0018 1446     		mov	r4, r2
 1178 001a 1D46     		mov	r5, r3
 1179 001c 204B     		ldr	r3, .L48
 1180 001e D3E90601 		ldrd	r0, [r3, #24]
 1181 0022 1F4B     		ldr	r3, .L48
 1182 0024 D3E90623 		ldrd	r2, [r3, #24]
 1183 0028 FFF7FEFF 		bl	__aeabi_dmul
 1184 002c 0246     		mov	r2, r0
 1185 002e 0B46     		mov	r3, r1
 1186 0030 2046     		mov	r0, r4
 1187 0032 2946     		mov	r1, r5
 1188 0034 FFF7FEFF 		bl	__aeabi_dadd
 1189 0038 0246     		mov	r2, r0
 1190 003a 0B46     		mov	r3, r1
 1191 003c 1446     		mov	r4, r2
 1192 003e 1D46     		mov	r5, r3
 1193 0040 174B     		ldr	r3, .L48
 1194 0042 D3E90801 		ldrd	r0, [r3, #32]
 1195 0046 164B     		ldr	r3, .L48
 1196 0048 D3E90823 		ldrd	r2, [r3, #32]
 1197 004c FFF7FEFF 		bl	__aeabi_dmul
 1198 0050 0246     		mov	r2, r0
 1199 0052 0B46     		mov	r3, r1
 1200 0054 2046     		mov	r0, r4
 1201 0056 2946     		mov	r1, r5
 1202 0058 FFF7FEFF 		bl	__aeabi_dadd
 1203 005c 0246     		mov	r2, r0
 1204 005e 0B46     		mov	r3, r1
 1205 0060 1446     		mov	r4, r2
 1206 0062 1D46     		mov	r5, r3
 1207 0064 0E4B     		ldr	r3, .L48
 1208 0066 D3E90A01 		ldrd	r0, [r3, #40]
 1209 006a 0D4B     		ldr	r3, .L48
 1210 006c D3E90A23 		ldrd	r2, [r3, #40]
 1211 0070 FFF7FEFF 		bl	__aeabi_dmul
 1212 0074 0246     		mov	r2, r0
 1213 0076 0B46     		mov	r3, r1
 1214 0078 2046     		mov	r0, r4
 1215 007a 2946     		mov	r1, r5
 1216 007c FFF7FEFF 		bl	__aeabi_dadd
 1217 0080 0246     		mov	r2, r0
 1218 0082 0B46     		mov	r3, r1
 1219 0084 1046     		mov	r0, r2
 1220 0086 1946     		mov	r1, r3
 1221 0088 FFF7FEFF 		bl	sqrt
 1222 008c 044B     		ldr	r3, .L48
 1223 008e D3E90223 		ldrd	r2, [r3, #8]
 1224 0092 FFF7FEFF 		bl	__aeabi_ddiv
 1225 0096 0246     		mov	r2, r0
 1226 0098 0B46     		mov	r3, r1
 182:sample.c      **** }
ARM GAS  C:\Users\User\AppData\Local\Temp\ccSj4pu6.s 			page 26


 1227              		.loc 1 182 0
 1228 009a 1046     		mov	r0, r2
 1229 009c 1946     		mov	r1, r3
 1230 009e B0BD     		pop	{r4, r5, r7, pc}
 1231              	.L49:
 1232              		.align	2
 1233              	.L48:
 1234 00a0 00000000 		.word	Abs_volt
 1235              		.cfi_endproc
 1236              	.LFE71:
 1237              		.size	calculate_THD, .-calculate_THD
 1238              		.text
 1239              	.Letext0:
 1240              		.file 2 "c:\\program files (x86)\\cypress\\psoc creator\\4.0\\psoc creator\\import\\gnu\\arm\\4.9.
 1241              		.file 3 "c:\\program files (x86)\\cypress\\psoc creator\\4.0\\psoc creator\\import\\gnu\\arm\\4.9.
 1242              		.file 4 "Generated_Source\\PSoC5/cytypes.h"
 1243              		.file 5 "Generated_Source\\PSoC5/core_cm3.h"
 1244              		.file 6 "sample.h"