ARM GAS  C:\Users\Dennis\AppData\Local\Temp\cce3lyNu.s 			page 1


   1              		.syntax unified
   2              		.cpu cortex-m3
   3              		.fpu softvfp
   4              		.eabi_attribute 20, 1
   5              		.eabi_attribute 21, 1
   6              		.eabi_attribute 23, 3
   7              		.eabi_attribute 24, 1
   8              		.eabi_attribute 25, 1
   9              		.eabi_attribute 26, 1
  10              		.eabi_attribute 30, 1
  11              		.eabi_attribute 34, 1
  12              		.eabi_attribute 18, 4
  13              		.thumb
  14              		.file	"main.c"
  15              		.text
  16              	.Ltext0:
  17              		.cfi_sections	.debug_frame
  18              		.section	.text.isr_RX,"ax",%progbits
  19              		.align	2
  20              		.global	isr_RX
  21              		.thumb
  22              		.thumb_func
  23              		.type	isr_RX, %function
  24              	isr_RX:
  25              	.LFB63:
  26              		.file 1 "main.c"
   1:main.c        **** /* ========================================
   2:main.c        ****  *
   3:main.c        ****  * Copyright YOUR COMPANY, THE YEAR
   4:main.c        ****  * All Rights Reserved
   5:main.c        ****  * UNPUBLISHED, LICENSED SOFTWARE.
   6:main.c        ****  *
   7:main.c        ****  * CONFIDENTIAL AND PROPRIETARY INFORMATION
   8:main.c        ****  * WHICH IS THE PROPERTY OF your company.
   9:main.c        ****  *
  10:main.c        ****  * ========================================
  11:main.c        **** */
  12:main.c        **** #include "project.h"
  13:main.c        **** 
  14:main.c        **** char RxData[20];
  15:main.c        **** uint8 i = 0, Strom1 = 48, Spanding = 49, pf=50, THD = 51;
  16:main.c        **** 
  17:main.c        **** CY_ISR(isr_RX)
  18:main.c        **** {
  27              		.loc 1 18 0
  28              		.cfi_startproc
  29              		@ args = 0, pretend = 0, frame = 0
  30              		@ frame_needed = 0, uses_anonymous_args = 0
  31 0000 10B5     		push	{r4, lr}
  32              		.cfi_def_cfa_offset 8
  33              		.cfi_offset 4, -8
  34              		.cfi_offset 14, -4
  19:main.c        ****     
  20:main.c        **** //    Uarten interruptes fordi den modtager noget
  21:main.c        **** //    Der checkes hvad der modtages
  22:main.c        ****     if(UART_1_ReadRxData() == 'A')
  35              		.loc 1 22 0
ARM GAS  C:\Users\Dennis\AppData\Local\Temp\cce3lyNu.s 			page 2


  36 0002 FFF7FEFF 		bl	UART_1_ReadRxData
  37              	.LVL0:
  38 0006 4128     		cmp	r0, #65
  39 0008 06D1     		bne	.L2
  23:main.c        ****     {
  24:main.c        ****         UART_1_WriteTxData(Strom1);
  40              		.loc 1 24 0
  41 000a 144C     		ldr	r4, .L7
  42 000c 2078     		ldrb	r0, [r4]	@ zero_extendqisi2
  43 000e FFF7FEFF 		bl	UART_1_WriteTxData
  44              	.LVL1:
  25:main.c        ****         UART_1_WriteTxData(Strom1);
  45              		.loc 1 25 0
  46 0012 2078     		ldrb	r0, [r4]	@ zero_extendqisi2
  47 0014 FFF7FEFF 		bl	UART_1_WriteTxData
  48              	.LVL2:
  49              	.L2:
  26:main.c        ****     }
  27:main.c        ****     if(UART_1_ReadRxData() == 'B')
  50              		.loc 1 27 0
  51 0018 FFF7FEFF 		bl	UART_1_ReadRxData
  52              	.LVL3:
  53 001c 4228     		cmp	r0, #66
  54 001e 06D1     		bne	.L3
  28:main.c        ****     {   
  29:main.c        ****         UART_1_WriteTxData(Spanding);
  55              		.loc 1 29 0
  56 0020 0E4C     		ldr	r4, .L7
  57 0022 6078     		ldrb	r0, [r4, #1]	@ zero_extendqisi2
  58 0024 FFF7FEFF 		bl	UART_1_WriteTxData
  59              	.LVL4:
  30:main.c        ****         UART_1_WriteTxData(Spanding);
  60              		.loc 1 30 0
  61 0028 6078     		ldrb	r0, [r4, #1]	@ zero_extendqisi2
  62 002a FFF7FEFF 		bl	UART_1_WriteTxData
  63              	.LVL5:
  64              	.L3:
  31:main.c        ****     }
  32:main.c        ****     if(UART_1_ReadRxData() == 'C')
  65              		.loc 1 32 0
  66 002e FFF7FEFF 		bl	UART_1_ReadRxData
  67              	.LVL6:
  68 0032 4328     		cmp	r0, #67
  69 0034 06D1     		bne	.L4
  33:main.c        ****     {   
  34:main.c        ****         UART_1_WriteTxData(pf);
  70              		.loc 1 34 0
  71 0036 094C     		ldr	r4, .L7
  72 0038 A078     		ldrb	r0, [r4, #2]	@ zero_extendqisi2
  73 003a FFF7FEFF 		bl	UART_1_WriteTxData
  74              	.LVL7:
  35:main.c        ****         UART_1_WriteTxData(pf);
  75              		.loc 1 35 0
  76 003e A078     		ldrb	r0, [r4, #2]	@ zero_extendqisi2
  77 0040 FFF7FEFF 		bl	UART_1_WriteTxData
  78              	.LVL8:
  79              	.L4:
ARM GAS  C:\Users\Dennis\AppData\Local\Temp\cce3lyNu.s 			page 3


  36:main.c        ****     }
  37:main.c        ****     if(UART_1_ReadRxData() == 'D')
  80              		.loc 1 37 0
  81 0044 FFF7FEFF 		bl	UART_1_ReadRxData
  82              	.LVL9:
  83 0048 4428     		cmp	r0, #68
  84 004a 06D1     		bne	.L1
  38:main.c        ****     {   
  39:main.c        ****         UART_1_WriteTxData(THD);
  85              		.loc 1 39 0
  86 004c 034C     		ldr	r4, .L7
  87 004e E078     		ldrb	r0, [r4, #3]	@ zero_extendqisi2
  88 0050 FFF7FEFF 		bl	UART_1_WriteTxData
  89              	.LVL10:
  40:main.c        ****         UART_1_WriteTxData(THD);
  90              		.loc 1 40 0
  91 0054 E078     		ldrb	r0, [r4, #3]	@ zero_extendqisi2
  92 0056 FFF7FEFF 		bl	UART_1_WriteTxData
  93              	.LVL11:
  94              	.L1:
  95 005a 10BD     		pop	{r4, pc}
  96              	.L8:
  97              		.align	2
  98              	.L7:
  99 005c 00000000 		.word	.LANCHOR0
 100              		.cfi_endproc
 101              	.LFE63:
 102              		.size	isr_RX, .-isr_RX
 103              		.section	.text.main,"ax",%progbits
 104              		.align	2
 105              		.global	main
 106              		.thumb
 107              		.thumb_func
 108              		.type	main, %function
 109              	main:
 110              	.LFB64:
  41:main.c        ****     }
  42:main.c        **** 
  43:main.c        **** }
  44:main.c        **** 
  45:main.c        **** 
  46:main.c        **** int main(void)
  47:main.c        **** {
 111              		.loc 1 47 0
 112              		.cfi_startproc
 113              		@ Volatile: function does not return.
 114              		@ args = 0, pretend = 0, frame = 0
 115              		@ frame_needed = 0, uses_anonymous_args = 0
 116 0000 08B5     		push	{r3, lr}
 117              		.cfi_def_cfa_offset 8
 118              		.cfi_offset 3, -8
 119              		.cfi_offset 14, -4
  48:main.c        ****     CyGlobalIntEnable; /* Enable global interrupts. */
 120              		.loc 1 48 0
 121              	@ 48 "main.c" 1
 122 0002 62B6     		CPSIE   i
 123              	@ 0 "" 2
ARM GAS  C:\Users\Dennis\AppData\Local\Temp\cce3lyNu.s 			page 4


  49:main.c        ****     
  50:main.c        ****     isr_RX_StartEx(isr_RX);
 124              		.loc 1 50 0
 125              		.thumb
 126 0004 0248     		ldr	r0, .L12
 127 0006 FFF7FEFF 		bl	isr_RX_StartEx
 128              	.LVL12:
  51:main.c        ****     UART_1_Start();
 129              		.loc 1 51 0
 130 000a FFF7FEFF 		bl	UART_1_Start
 131              	.LVL13:
 132              	.L10:
  52:main.c        ****     
  53:main.c        ****     /* Place your initialization/startup code here (e.g. MyInst_Start()) */
  54:main.c        **** 
  55:main.c        ****     for(;;)
  56:main.c        ****     {
  57:main.c        **** //        Strom1++;
  58:main.c        **** //        Spanding++;
  59:main.c        **** //        pf++;
  60:main.c        **** //        THD++;
  61:main.c        **** //        if(Strom1 > 200) Strom1=0;
  62:main.c        **** //        if(Spanding >200) Spanding=0;
  63:main.c        **** //        if(pf>200) pf=0;
  64:main.c        **** //        if(THD>200) THD=0;
  65:main.c        ****     }
 133              		.loc 1 65 0 discriminator 1
 134 000e FEE7     		b	.L10
 135              	.L13:
 136              		.align	2
 137              	.L12:
 138 0010 00000000 		.word	isr_RX
 139              		.cfi_endproc
 140              	.LFE64:
 141              		.size	main, .-main
 142              		.global	THD
 143              		.global	pf
 144              		.global	Spanding
 145              		.global	Strom1
 146              		.global	i
 147              		.comm	RxData,20,4
 148              		.data
 149              		.set	.LANCHOR0,. + 0
 150              		.type	Strom1, %object
 151              		.size	Strom1, 1
 152              	Strom1:
 153 0000 30       		.byte	48
 154              		.type	Spanding, %object
 155              		.size	Spanding, 1
 156              	Spanding:
 157 0001 31       		.byte	49
 158              		.type	pf, %object
 159              		.size	pf, 1
 160              	pf:
 161 0002 32       		.byte	50
 162              		.type	THD, %object
 163              		.size	THD, 1
ARM GAS  C:\Users\Dennis\AppData\Local\Temp\cce3lyNu.s 			page 5


 164              	THD:
 165 0003 33       		.byte	51
 166              		.bss
 167              		.type	i, %object
 168              		.size	i, 1
 169              	i:
 170 0000 00       		.space	1
 171              		.text
 172              	.Letext0:
 173              		.file 2 "c:\\program files (x86)\\cypress\\psoc creator\\4.0\\psoc creator\\import\\gnu\\arm\\4.9.
 174              		.file 3 "c:\\program files (x86)\\cypress\\psoc creator\\4.0\\psoc creator\\import\\gnu\\arm\\4.9.
 175              		.file 4 "Generated_Source\\PSoC5/cytypes.h"
 176              		.file 5 "Generated_Source\\PSoC5/core_cm3.h"
 177              		.file 6 "Generated_Source\\PSoC5/UART_1.h"
 178              		.file 7 "Generated_Source\\PSoC5/isr_RX.h"