ARM GAS  C:\Users\Soren\AppData\Local\Temp\ccogahl2.s 			page 1


   1              		.syntax unified
   2              		.cpu cortex-m3
   3              		.fpu softvfp
   4              		.eabi_attribute 20, 1
   5              		.eabi_attribute 21, 1
   6              		.eabi_attribute 23, 3
   7              		.eabi_attribute 24, 1
   8              		.eabi_attribute 25, 1
   9              		.eabi_attribute 26, 1
  10              		.eabi_attribute 30, 6
  11              		.eabi_attribute 34, 1
  12              		.eabi_attribute 18, 4
  13              		.thumb
  14              		.file	"main.c"
  15              		.text
  16              	.Ltext0:
  17              		.cfi_sections	.debug_frame
  18              		.comm	Abs_volt,512,8
  19              		.comm	Re_volt,512,8
  20              		.comm	Im_volt,512,8
  21              		.comm	Abs_Ampere,512,8
  22              		.comm	Re_Ampere,512,8
  23              		.comm	Im_Ampere,512,8
  24              		.comm	Amp_Volt,8,8
  25              		.comm	RMS_Volt,8,8
  26              		.comm	Amp_Ampere,8,8
  27              		.comm	RMS_Ampere,8,8
  28              		.comm	PF,8,8
  29              		.comm	THD,8,8
  30              		.comm	SampleArrayU,256,4
  31              		.comm	SampleArrayI,256,4
  32              		.global	__aeabi_dmul
  33              		.section	.text.isr_RX,"ax",%progbits
  34              		.align	2
  35              		.global	isr_RX
  36              		.thumb
  37              		.thumb_func
  38              		.type	isr_RX, %function
  39              	isr_RX:
  40              	.LFB63:
  41              		.file 1 "main.c"
   1:main.c        **** /* ========================================
   2:main.c        ****  *
   3:main.c        ****  * Copyright YOUR COMPANY, THE YEAR
   4:main.c        ****  * All Rights Reserved
   5:main.c        ****  * UNPUBLISHED, LICENSED SOFTWARE.
   6:main.c        ****  *
   7:main.c        ****  * CONFIDENTIAL AND PROPRIETARY INFORMATION
   8:main.c        ****  * WHICH IS THE PROPERTY OF your company.
   9:main.c        ****  *
  10:main.c        ****  * ========================================
  11:main.c        **** */
  12:main.c        **** 
  13:main.c        **** #include "sample.h"
  14:main.c        **** 
  15:main.c        **** 
  16:main.c        **** CY_ISR(isr_RX)
ARM GAS  C:\Users\Soren\AppData\Local\Temp\ccogahl2.s 			page 2


  17:main.c        **** {
  42              		.loc 1 17 0
  43              		.cfi_startproc
  44              		@ args = 0, pretend = 0, frame = 0
  45              		@ frame_needed = 1, uses_anonymous_args = 0
  46 0000 80B5     		push	{r7, lr}
  47              		.cfi_def_cfa_offset 8
  48              		.cfi_offset 7, -8
  49              		.cfi_offset 14, -4
  50 0002 00AF     		add	r7, sp, #0
  51              		.cfi_def_cfa_register 7
  18:main.c        ****     switch (UART_1_ReadRxData()){
  52              		.loc 1 18 0
  53 0004 FFF7FEFF 		bl	UART_1_ReadRxData
  54 0008 0346     		mov	r3, r0
  55 000a 413B     		subs	r3, r3, #65
  56 000c 032B     		cmp	r3, #3
  57 000e 00F28D80 		bhi	.L9
  58 0012 01A2     		adr	r2, .L4
  59 0014 52F823F0 		ldr	pc, [r2, r3, lsl #2]
  60              		.p2align 2
  61              	.L4:
  62 0018 29000000 		.word	.L3+1
  63 001c 5B000000 		.word	.L5+1
  64 0020 89000000 		.word	.L6+1
  65 0024 DB000000 		.word	.L7+1
  66              		.p2align 1
  67              	.L3:
  19:main.c        ****         case 'A':
  20:main.c        ****                     sampleAndCalc();
  68              		.loc 1 20 0
  69 0028 FFF7FEFF 		bl	sampleAndCalc
  21:main.c        ****                     UART_1_WriteTxData(makeMSB(RMS_Ampere));
  70              		.loc 1 21 0
  71 002c 404B     		ldr	r3, .L10
  72 002e D3E90023 		ldrd	r2, [r3]
  73 0032 1046     		mov	r0, r2
  74 0034 1946     		mov	r1, r3
  75 0036 FFF7FEFF 		bl	makeMSB
  76 003a 0346     		mov	r3, r0
  77 003c 1846     		mov	r0, r3
  78 003e FFF7FEFF 		bl	UART_1_WriteTxData
  22:main.c        ****                     UART_1_WriteTxData(makeLSB(RMS_Ampere));
  79              		.loc 1 22 0
  80 0042 3B4B     		ldr	r3, .L10
  81 0044 D3E90023 		ldrd	r2, [r3]
  82 0048 1046     		mov	r0, r2
  83 004a 1946     		mov	r1, r3
  84 004c FFF7FEFF 		bl	makeLSB
  85 0050 0346     		mov	r3, r0
  86 0052 1846     		mov	r0, r3
  87 0054 FFF7FEFF 		bl	UART_1_WriteTxData
  23:main.c        ****                     break;
  88              		.loc 1 23 0
  89 0058 69E0     		b	.L1
  90              	.L5:
  24:main.c        ****         case 'B':
ARM GAS  C:\Users\Soren\AppData\Local\Temp\ccogahl2.s 			page 3


  25:main.c        ****                     UART_1_WriteTxData(makeMSB(RMS_Volt));
  91              		.loc 1 25 0
  92 005a 364B     		ldr	r3, .L10+4
  93 005c D3E90023 		ldrd	r2, [r3]
  94 0060 1046     		mov	r0, r2
  95 0062 1946     		mov	r1, r3
  96 0064 FFF7FEFF 		bl	makeMSB
  97 0068 0346     		mov	r3, r0
  98 006a 1846     		mov	r0, r3
  99 006c FFF7FEFF 		bl	UART_1_WriteTxData
  26:main.c        ****                     UART_1_WriteTxData(makeLSB(RMS_Volt));
 100              		.loc 1 26 0
 101 0070 304B     		ldr	r3, .L10+4
 102 0072 D3E90023 		ldrd	r2, [r3]
 103 0076 1046     		mov	r0, r2
 104 0078 1946     		mov	r1, r3
 105 007a FFF7FEFF 		bl	makeLSB
 106 007e 0346     		mov	r3, r0
 107 0080 1846     		mov	r0, r3
 108 0082 FFF7FEFF 		bl	UART_1_WriteTxData
  27:main.c        ****                     break;
 109              		.loc 1 27 0
 110 0086 52E0     		b	.L1
 111              	.L6:
  28:main.c        ****         case 'C':
  29:main.c        ****                     UART_1_WriteTxData(makeMSB(THD*1000));
 112              		.loc 1 29 0
 113 0088 2B4B     		ldr	r3, .L10+8
 114 008a D3E90023 		ldrd	r2, [r3]
 115 008e 1046     		mov	r0, r2
 116 0090 1946     		mov	r1, r3
 117 0092 4FF00002 		mov	r2, #0
 118 0096 294B     		ldr	r3, .L10+12
 119 0098 FFF7FEFF 		bl	__aeabi_dmul
 120 009c 0246     		mov	r2, r0
 121 009e 0B46     		mov	r3, r1
 122 00a0 1046     		mov	r0, r2
 123 00a2 1946     		mov	r1, r3
 124 00a4 FFF7FEFF 		bl	makeMSB
 125 00a8 0346     		mov	r3, r0
 126 00aa 1846     		mov	r0, r3
 127 00ac FFF7FEFF 		bl	UART_1_WriteTxData
  30:main.c        ****                     UART_1_WriteTxData(makeLSB(THD*1000));
 128              		.loc 1 30 0
 129 00b0 214B     		ldr	r3, .L10+8
 130 00b2 D3E90023 		ldrd	r2, [r3]
 131 00b6 1046     		mov	r0, r2
 132 00b8 1946     		mov	r1, r3
 133 00ba 4FF00002 		mov	r2, #0
 134 00be 1F4B     		ldr	r3, .L10+12
 135 00c0 FFF7FEFF 		bl	__aeabi_dmul
 136 00c4 0246     		mov	r2, r0
 137 00c6 0B46     		mov	r3, r1
 138 00c8 1046     		mov	r0, r2
 139 00ca 1946     		mov	r1, r3
 140 00cc FFF7FEFF 		bl	makeLSB
 141 00d0 0346     		mov	r3, r0
ARM GAS  C:\Users\Soren\AppData\Local\Temp\ccogahl2.s 			page 4


 142 00d2 1846     		mov	r0, r3
 143 00d4 FFF7FEFF 		bl	UART_1_WriteTxData
  31:main.c        ****                     break;
 144              		.loc 1 31 0
 145 00d8 29E0     		b	.L1
 146              	.L7:
  32:main.c        ****         case 'D':
  33:main.c        ****                     UART_1_WriteTxData(makeMSB(PF*1000));
 147              		.loc 1 33 0
 148 00da 194B     		ldr	r3, .L10+16
 149 00dc D3E90023 		ldrd	r2, [r3]
 150 00e0 1046     		mov	r0, r2
 151 00e2 1946     		mov	r1, r3
 152 00e4 4FF00002 		mov	r2, #0
 153 00e8 144B     		ldr	r3, .L10+12
 154 00ea FFF7FEFF 		bl	__aeabi_dmul
 155 00ee 0246     		mov	r2, r0
 156 00f0 0B46     		mov	r3, r1
 157 00f2 1046     		mov	r0, r2
 158 00f4 1946     		mov	r1, r3
 159 00f6 FFF7FEFF 		bl	makeMSB
 160 00fa 0346     		mov	r3, r0
 161 00fc 1846     		mov	r0, r3
 162 00fe FFF7FEFF 		bl	UART_1_WriteTxData
  34:main.c        ****                     UART_1_WriteTxData(makeLSB(PF*1000));
 163              		.loc 1 34 0
 164 0102 0F4B     		ldr	r3, .L10+16
 165 0104 D3E90023 		ldrd	r2, [r3]
 166 0108 1046     		mov	r0, r2
 167 010a 1946     		mov	r1, r3
 168 010c 4FF00002 		mov	r2, #0
 169 0110 0A4B     		ldr	r3, .L10+12
 170 0112 FFF7FEFF 		bl	__aeabi_dmul
 171 0116 0246     		mov	r2, r0
 172 0118 0B46     		mov	r3, r1
 173 011a 1046     		mov	r0, r2
 174 011c 1946     		mov	r1, r3
 175 011e FFF7FEFF 		bl	makeLSB
 176 0122 0346     		mov	r3, r0
 177 0124 1846     		mov	r0, r3
 178 0126 FFF7FEFF 		bl	UART_1_WriteTxData
  35:main.c        ****                     break;
 179              		.loc 1 35 0
 180 012a 00E0     		b	.L1
 181              	.L9:
  36:main.c        ****         default:
  37:main.c        ****                     break;
 182              		.loc 1 37 0
 183 012c 00BF     		nop
 184              	.L1:
  38:main.c        ****     }
  39:main.c        **** }
 185              		.loc 1 39 0
 186 012e 80BD     		pop	{r7, pc}
 187              	.L11:
 188              		.align	2
 189              	.L10:
ARM GAS  C:\Users\Soren\AppData\Local\Temp\ccogahl2.s 			page 5


 190 0130 00000000 		.word	RMS_Ampere
 191 0134 00000000 		.word	RMS_Volt
 192 0138 00000000 		.word	THD
 193 013c 00408F40 		.word	1083129856
 194 0140 00000000 		.word	PF
 195              		.cfi_endproc
 196              	.LFE63:
 197              		.size	isr_RX, .-isr_RX
 198              		.section	.text.main,"ax",%progbits
 199              		.align	2
 200              		.global	main
 201              		.thumb
 202              		.thumb_func
 203              		.type	main, %function
 204              	main:
 205              	.LFB64:
  40:main.c        **** 
  41:main.c        **** int main(void)
  42:main.c        **** {
 206              		.loc 1 42 0
 207              		.cfi_startproc
 208              		@ args = 0, pretend = 0, frame = 0
 209              		@ frame_needed = 1, uses_anonymous_args = 0
 210 0000 80B5     		push	{r7, lr}
 211              		.cfi_def_cfa_offset 8
 212              		.cfi_offset 7, -8
 213              		.cfi_offset 14, -4
 214 0002 00AF     		add	r7, sp, #0
 215              		.cfi_def_cfa_register 7
  43:main.c        ****     CyGlobalIntEnable; /* Enable global interrupts. */
 216              		.loc 1 43 0
 217              	@ 43 "main.c" 1
 218 0004 62B6     		CPSIE   i
 219              	@ 0 "" 2
  44:main.c        **** 
  45:main.c        ****     /* Place your initialization/startup code here (e.g. MyInst_Start()) */
  46:main.c        ****     
  47:main.c        ****     isr_RX_StartEx(isr_RX);
 220              		.loc 1 47 0
 221              		.thumb
 222 0006 0648     		ldr	r0, .L14
 223 0008 FFF7FEFF 		bl	isr_RX_StartEx
  48:main.c        ****     UART_1_Start();
 224              		.loc 1 48 0
 225 000c FFF7FEFF 		bl	UART_1_Start
  49:main.c        ****     
  50:main.c        ****     ADC_DelSig_1_Start();
 226              		.loc 1 50 0
 227 0010 FFF7FEFF 		bl	ADC_DelSig_1_Start
  51:main.c        ****     ADC_DelSig_1_StartConvert();
 228              		.loc 1 51 0
 229 0014 FFF7FEFF 		bl	ADC_DelSig_1_StartConvert
  52:main.c        ****     
  53:main.c        ****     AMux_1_Start();
 230              		.loc 1 53 0
 231 0018 FFF7FEFF 		bl	AMux_1_Start
 232              	.L13:
ARM GAS  C:\Users\Soren\AppData\Local\Temp\ccogahl2.s 			page 6


  54:main.c        ****         
  55:main.c        ****     while(1)
  56:main.c        ****     {
  57:main.c        **** 
  58:main.c        ****     }   
 233              		.loc 1 58 0 discriminator 1
 234 001c FEE7     		b	.L13
 235              	.L15:
 236 001e 00BF     		.align	2
 237              	.L14:
 238 0020 00000000 		.word	isr_RX
 239              		.cfi_endproc
 240              	.LFE64:
 241              		.size	main, .-main
 242              		.text
 243              	.Letext0:
 244              		.file 2 "c:\\program files (x86)\\cypress\\psoc creator\\4.0\\psoc creator\\import\\gnu\\arm\\4.9.
 245              		.file 3 "c:\\program files (x86)\\cypress\\psoc creator\\4.0\\psoc creator\\import\\gnu\\arm\\4.9.
 246              		.file 4 "Generated_Source\\PSoC5/core_cm3.h"
 247              		.file 5 "sample.h"