ARM GAS  C:\Users\User\AppData\Local\Temp\ccWdygM6.s 			page 1


   1              		.syntax unified
   2              		.cpu cortex-m3
   3              		.fpu softvfp
   4              		.eabi_attribute 20, 1
   5              		.eabi_attribute 21, 1
   6              		.eabi_attribute 23, 3
   7              		.eabi_attribute 24, 1
   8              		.eabi_attribute 25, 1
   9              		.eabi_attribute 26, 1
  10              		.eabi_attribute 30, 6
  11              		.eabi_attribute 34, 1
  12              		.eabi_attribute 18, 4
  13              		.thumb
  14              		.file	"main.c"
  15              		.text
  16              	.Ltext0:
  17              		.cfi_sections	.debug_frame
  18              		.global	mod
  19              		.bss
  20              		.align	3
  21              		.type	mod, %object
  22              		.size	mod, 512
  23              	mod:
  24 0000 00000000 		.space	512
  24      00000000 
  24      00000000 
  24      00000000 
  24      00000000 
  25              		.global	data_re
  26              		.align	3
  27              		.type	data_re, %object
  28              		.size	data_re, 512
  29              	data_re:
  30 0200 00000000 		.space	512
  30      00000000 
  30      00000000 
  30      00000000 
  30      00000000 
  31              		.global	data_imm
  32              		.align	3
  33              		.type	data_imm, %object
  34              		.size	data_imm, 512
  35              	data_imm:
  36 0400 00000000 		.space	512
  36      00000000 
  36      00000000 
  36      00000000 
  36      00000000 
  37              		.global	__aeabi_dmul
  38              		.global	__aeabi_dsub
  39              		.global	__aeabi_dadd
  40              		.global	__aeabi_ddiv
  41              		.section	.text.FFT,"ax",%progbits
  42              		.align	2
  43              		.global	FFT
  44              		.thumb
  45              		.thumb_func
ARM GAS  C:\Users\User\AppData\Local\Temp\ccWdygM6.s 			page 2


  46              		.type	FFT, %function
  47              	FFT:
  48              	.LFB63:
  49              		.file 1 "fft.h"
   1:fft.h         **** #include "math.h"				 //mathematical library
   2:fft.h         **** 
   3:fft.h         **** // FFT parameters
   4:fft.h         **** #define N_points 64              //number of points				
   5:fft.h         **** #define exponent log(64)/log(2)  //log2(N_points); for N_points=64 -> exponent=6
   6:fft.h         **** 
   7:fft.h         **** 
   8:fft.h         **** 
   9:fft.h         **** // FFT variables
  10:fft.h         **** double mod[N_points]={0};        //arrays
  11:fft.h         **** double data_re[N_points]={0};
  12:fft.h         **** double data_imm[N_points]={0};
  13:fft.h         **** 
  14:fft.h         **** // FFT function
  15:fft.h         **** void FFT(int dir,long m,double *x,double *y)
  16:fft.h         **** {
  50              		.loc 1 16 0
  51              		.cfi_startproc
  52              		@ args = 0, pretend = 0, frame = 128
  53              		@ frame_needed = 1, uses_anonymous_args = 0
  54 0000 B0B5     		push	{r4, r5, r7, lr}
  55              		.cfi_def_cfa_offset 16
  56              		.cfi_offset 4, -16
  57              		.cfi_offset 5, -12
  58              		.cfi_offset 7, -8
  59              		.cfi_offset 14, -4
  60 0002 A0B0     		sub	sp, sp, #128
  61              		.cfi_def_cfa_offset 144
  62 0004 00AF     		add	r7, sp, #0
  63              		.cfi_def_cfa_register 7
  64 0006 F860     		str	r0, [r7, #12]
  65 0008 B960     		str	r1, [r7, #8]
  66 000a 7A60     		str	r2, [r7, #4]
  67 000c 3B60     		str	r3, [r7]
  17:fft.h         ****    // dir:  forward (=1) o inverse (!=1) transform; 
  18:fft.h         ****    // m exponent;
  19:fft.h         ****    
  20:fft.h         ****    long n,i,i1,j,k,i2,l,l1,l2;
  21:fft.h         ****    double c1,c2,tx,ty,t1,t2,u1,u2,z;
  22:fft.h         **** 
  23:fft.h         ****    /* Calculate the number of points */
  24:fft.h         ****    n = 1;
  68              		.loc 1 24 0
  69 000e 0123     		movs	r3, #1
  70 0010 FB67     		str	r3, [r7, #124]
  25:fft.h         ****    for (i=0;i<m;i++) 
  71              		.loc 1 25 0
  72 0012 0023     		movs	r3, #0
  73 0014 BB67     		str	r3, [r7, #120]
  74 0016 05E0     		b	.L2
  75              	.L3:
  26:fft.h         ****       n *= 2;
  76              		.loc 1 26 0 discriminator 3
ARM GAS  C:\Users\User\AppData\Local\Temp\ccWdygM6.s 			page 3


  77 0018 FB6F     		ldr	r3, [r7, #124]
  78 001a 5B00     		lsls	r3, r3, #1
  79 001c FB67     		str	r3, [r7, #124]
  25:fft.h         ****    for (i=0;i<m;i++) 
  80              		.loc 1 25 0 discriminator 3
  81 001e BB6F     		ldr	r3, [r7, #120]
  82 0020 0133     		adds	r3, r3, #1
  83 0022 BB67     		str	r3, [r7, #120]
  84              	.L2:
  25:fft.h         ****    for (i=0;i<m;i++) 
  85              		.loc 1 25 0 is_stmt 0 discriminator 1
  86 0024 BA6F     		ldr	r2, [r7, #120]
  87 0026 BB68     		ldr	r3, [r7, #8]
  88 0028 9A42     		cmp	r2, r3
  89 002a F5DB     		blt	.L3
  27:fft.h         **** 
  28:fft.h         ****    /* Do the bit reversal */
  29:fft.h         ****    i2 = n >> 1;
  90              		.loc 1 29 0 is_stmt 1
  91 002c FB6F     		ldr	r3, [r7, #124]
  92 002e 5B10     		asrs	r3, r3, #1
  93 0030 7B64     		str	r3, [r7, #68]
  30:fft.h         ****    j = 0;
  94              		.loc 1 30 0
  95 0032 0023     		movs	r3, #0
  96 0034 7B67     		str	r3, [r7, #116]
  31:fft.h         ****    for (i=0;i<n-1;i++) {
  97              		.loc 1 31 0
  98 0036 0023     		movs	r3, #0
  99 0038 BB67     		str	r3, [r7, #120]
 100 003a 50E0     		b	.L4
 101              	.L8:
  32:fft.h         ****       if (i < j) {
 102              		.loc 1 32 0
 103 003c BA6F     		ldr	r2, [r7, #120]
 104 003e 7B6F     		ldr	r3, [r7, #116]
 105 0040 9A42     		cmp	r2, r3
 106 0042 37DA     		bge	.L5
  33:fft.h         ****          tx = x[i];
 107              		.loc 1 33 0
 108 0044 BB6F     		ldr	r3, [r7, #120]
 109 0046 DB00     		lsls	r3, r3, #3
 110 0048 7A68     		ldr	r2, [r7, #4]
 111 004a 1344     		add	r3, r3, r2
 112 004c D3E90023 		ldrd	r2, [r3]
 113 0050 C7E90E23 		strd	r2, [r7, #56]
  34:fft.h         ****          ty = y[i];
 114              		.loc 1 34 0
 115 0054 BB6F     		ldr	r3, [r7, #120]
 116 0056 DB00     		lsls	r3, r3, #3
 117 0058 3A68     		ldr	r2, [r7]
 118 005a 1344     		add	r3, r3, r2
 119 005c D3E90023 		ldrd	r2, [r3]
 120 0060 C7E90C23 		strd	r2, [r7, #48]
  35:fft.h         ****          x[i] = x[j];
 121              		.loc 1 35 0
 122 0064 BB6F     		ldr	r3, [r7, #120]
ARM GAS  C:\Users\User\AppData\Local\Temp\ccWdygM6.s 			page 4


 123 0066 DB00     		lsls	r3, r3, #3
 124 0068 7A68     		ldr	r2, [r7, #4]
 125 006a D118     		adds	r1, r2, r3
 126 006c 7B6F     		ldr	r3, [r7, #116]
 127 006e DB00     		lsls	r3, r3, #3
 128 0070 7A68     		ldr	r2, [r7, #4]
 129 0072 1344     		add	r3, r3, r2
 130 0074 D3E90023 		ldrd	r2, [r3]
 131 0078 C1E90023 		strd	r2, [r1]
  36:fft.h         ****          y[i] = y[j];
 132              		.loc 1 36 0
 133 007c BB6F     		ldr	r3, [r7, #120]
 134 007e DB00     		lsls	r3, r3, #3
 135 0080 3A68     		ldr	r2, [r7]
 136 0082 D118     		adds	r1, r2, r3
 137 0084 7B6F     		ldr	r3, [r7, #116]
 138 0086 DB00     		lsls	r3, r3, #3
 139 0088 3A68     		ldr	r2, [r7]
 140 008a 1344     		add	r3, r3, r2
 141 008c D3E90023 		ldrd	r2, [r3]
 142 0090 C1E90023 		strd	r2, [r1]
  37:fft.h         ****          x[j] = tx;
 143              		.loc 1 37 0
 144 0094 7B6F     		ldr	r3, [r7, #116]
 145 0096 DB00     		lsls	r3, r3, #3
 146 0098 7A68     		ldr	r2, [r7, #4]
 147 009a D118     		adds	r1, r2, r3
 148 009c D7E90E23 		ldrd	r2, [r7, #56]
 149 00a0 C1E90023 		strd	r2, [r1]
  38:fft.h         ****          y[j] = ty;
 150              		.loc 1 38 0
 151 00a4 7B6F     		ldr	r3, [r7, #116]
 152 00a6 DB00     		lsls	r3, r3, #3
 153 00a8 3A68     		ldr	r2, [r7]
 154 00aa D118     		adds	r1, r2, r3
 155 00ac D7E90C23 		ldrd	r2, [r7, #48]
 156 00b0 C1E90023 		strd	r2, [r1]
 157              	.L5:
  39:fft.h         ****       }
  40:fft.h         ****       k = i2;
 158              		.loc 1 40 0
 159 00b4 7B6C     		ldr	r3, [r7, #68]
 160 00b6 3B67     		str	r3, [r7, #112]
  41:fft.h         ****       while (k <= j) {
 161              		.loc 1 41 0
 162 00b8 06E0     		b	.L6
 163              	.L7:
  42:fft.h         ****          j -= k;
 164              		.loc 1 42 0
 165 00ba 7A6F     		ldr	r2, [r7, #116]
 166 00bc 3B6F     		ldr	r3, [r7, #112]
 167 00be D31A     		subs	r3, r2, r3
 168 00c0 7B67     		str	r3, [r7, #116]
  43:fft.h         ****          k >>= 1;
 169              		.loc 1 43 0
 170 00c2 3B6F     		ldr	r3, [r7, #112]
 171 00c4 5B10     		asrs	r3, r3, #1
ARM GAS  C:\Users\User\AppData\Local\Temp\ccWdygM6.s 			page 5


 172 00c6 3B67     		str	r3, [r7, #112]
 173              	.L6:
  41:fft.h         ****       while (k <= j) {
 174              		.loc 1 41 0
 175 00c8 3A6F     		ldr	r2, [r7, #112]
 176 00ca 7B6F     		ldr	r3, [r7, #116]
 177 00cc 9A42     		cmp	r2, r3
 178 00ce F4DD     		ble	.L7
  44:fft.h         ****       }
  45:fft.h         ****       j += k;
 179              		.loc 1 45 0 discriminator 2
 180 00d0 7A6F     		ldr	r2, [r7, #116]
 181 00d2 3B6F     		ldr	r3, [r7, #112]
 182 00d4 1344     		add	r3, r3, r2
 183 00d6 7B67     		str	r3, [r7, #116]
  31:fft.h         ****       if (i < j) {
 184              		.loc 1 31 0 discriminator 2
 185 00d8 BB6F     		ldr	r3, [r7, #120]
 186 00da 0133     		adds	r3, r3, #1
 187 00dc BB67     		str	r3, [r7, #120]
 188              	.L4:
  31:fft.h         ****       if (i < j) {
 189              		.loc 1 31 0 is_stmt 0 discriminator 1
 190 00de FB6F     		ldr	r3, [r7, #124]
 191 00e0 5A1E     		subs	r2, r3, #1
 192 00e2 BB6F     		ldr	r3, [r7, #120]
 193 00e4 9A42     		cmp	r2, r3
 194 00e6 A9DC     		bgt	.L8
  46:fft.h         ****    }
  47:fft.h         **** 
  48:fft.h         ****    /* Compute the FFT */
  49:fft.h         ****    c1 = -1.0; 
 195              		.loc 1 49 0 is_stmt 1
 196 00e8 4FF00002 		mov	r2, #0
 197 00ec A94B     		ldr	r3, .L18
 198 00ee C7E91823 		strd	r2, [r7, #96]
  50:fft.h         ****    c2 = 0.0;
 199              		.loc 1 50 0
 200 00f2 4FF00002 		mov	r2, #0
 201 00f6 4FF00003 		mov	r3, #0
 202 00fa C7E91623 		strd	r2, [r7, #88]
  51:fft.h         ****    l2 = 1;
 203              		.loc 1 51 0
 204 00fe 0123     		movs	r3, #1
 205 0100 BB66     		str	r3, [r7, #104]
  52:fft.h         ****    for (l=0;l<m;l++) {
 206              		.loc 1 52 0
 207 0102 0023     		movs	r3, #0
 208 0104 FB66     		str	r3, [r7, #108]
 209 0106 3CE1     		b	.L9
 210              	.L15:
  53:fft.h         ****       l1 = l2;
 211              		.loc 1 53 0
 212 0108 BB6E     		ldr	r3, [r7, #104]
 213 010a FB62     		str	r3, [r7, #44]
  54:fft.h         ****       l2 <<= 1;
 214              		.loc 1 54 0
ARM GAS  C:\Users\User\AppData\Local\Temp\ccWdygM6.s 			page 6


 215 010c BB6E     		ldr	r3, [r7, #104]
 216 010e 5B00     		lsls	r3, r3, #1
 217 0110 BB66     		str	r3, [r7, #104]
  55:fft.h         ****       u1 = 1.0; 
 218              		.loc 1 55 0
 219 0112 4FF00002 		mov	r2, #0
 220 0116 A04B     		ldr	r3, .L18+4
 221 0118 C7E91423 		strd	r2, [r7, #80]
  56:fft.h         ****       u2 = 0.0;
 222              		.loc 1 56 0
 223 011c 4FF00002 		mov	r2, #0
 224 0120 4FF00003 		mov	r3, #0
 225 0124 C7E91223 		strd	r2, [r7, #72]
  57:fft.h         ****       for (j=0;j<l1;j++) {
 226              		.loc 1 57 0
 227 0128 0023     		movs	r3, #0
 228 012a 7B67     		str	r3, [r7, #116]
 229 012c E6E0     		b	.L10
 230              	.L13:
  58:fft.h         ****          for (i=j;i<n;i+=l2) {
 231              		.loc 1 58 0
 232 012e 7B6F     		ldr	r3, [r7, #116]
 233 0130 BB67     		str	r3, [r7, #120]
 234 0132 A3E0     		b	.L11
 235              	.L12:
  59:fft.h         ****             i1 = i + l1;
 236              		.loc 1 59 0 discriminator 3
 237 0134 BA6F     		ldr	r2, [r7, #120]
 238 0136 FB6A     		ldr	r3, [r7, #44]
 239 0138 1344     		add	r3, r3, r2
 240 013a BB62     		str	r3, [r7, #40]
  60:fft.h         ****             t1 = u1 * x[i1] - u2 * y[i1];
 241              		.loc 1 60 0 discriminator 3
 242 013c BB6A     		ldr	r3, [r7, #40]
 243 013e DB00     		lsls	r3, r3, #3
 244 0140 7A68     		ldr	r2, [r7, #4]
 245 0142 1344     		add	r3, r3, r2
 246 0144 D3E90023 		ldrd	r2, [r3]
 247 0148 1046     		mov	r0, r2
 248 014a 1946     		mov	r1, r3
 249 014c D7E91423 		ldrd	r2, [r7, #80]
 250 0150 FFF7FEFF 		bl	__aeabi_dmul
 251 0154 0246     		mov	r2, r0
 252 0156 0B46     		mov	r3, r1
 253 0158 1446     		mov	r4, r2
 254 015a 1D46     		mov	r5, r3
 255 015c BB6A     		ldr	r3, [r7, #40]
 256 015e DB00     		lsls	r3, r3, #3
 257 0160 3A68     		ldr	r2, [r7]
 258 0162 1344     		add	r3, r3, r2
 259 0164 D3E90023 		ldrd	r2, [r3]
 260 0168 1046     		mov	r0, r2
 261 016a 1946     		mov	r1, r3
 262 016c D7E91223 		ldrd	r2, [r7, #72]
 263 0170 FFF7FEFF 		bl	__aeabi_dmul
 264 0174 0246     		mov	r2, r0
 265 0176 0B46     		mov	r3, r1
ARM GAS  C:\Users\User\AppData\Local\Temp\ccWdygM6.s 			page 7


 266 0178 2046     		mov	r0, r4
 267 017a 2946     		mov	r1, r5
 268 017c FFF7FEFF 		bl	__aeabi_dsub
 269 0180 0246     		mov	r2, r0
 270 0182 0B46     		mov	r3, r1
 271 0184 C7E90823 		strd	r2, [r7, #32]
  61:fft.h         ****             t2 = u1 * y[i1] + u2 * x[i1];
 272              		.loc 1 61 0 discriminator 3
 273 0188 BB6A     		ldr	r3, [r7, #40]
 274 018a DB00     		lsls	r3, r3, #3
 275 018c 3A68     		ldr	r2, [r7]
 276 018e 1344     		add	r3, r3, r2
 277 0190 D3E90023 		ldrd	r2, [r3]
 278 0194 1046     		mov	r0, r2
 279 0196 1946     		mov	r1, r3
 280 0198 D7E91423 		ldrd	r2, [r7, #80]
 281 019c FFF7FEFF 		bl	__aeabi_dmul
 282 01a0 0246     		mov	r2, r0
 283 01a2 0B46     		mov	r3, r1
 284 01a4 1446     		mov	r4, r2
 285 01a6 1D46     		mov	r5, r3
 286 01a8 BB6A     		ldr	r3, [r7, #40]
 287 01aa DB00     		lsls	r3, r3, #3
 288 01ac 7A68     		ldr	r2, [r7, #4]
 289 01ae 1344     		add	r3, r3, r2
 290 01b0 D3E90023 		ldrd	r2, [r3]
 291 01b4 1046     		mov	r0, r2
 292 01b6 1946     		mov	r1, r3
 293 01b8 D7E91223 		ldrd	r2, [r7, #72]
 294 01bc FFF7FEFF 		bl	__aeabi_dmul
 295 01c0 0246     		mov	r2, r0
 296 01c2 0B46     		mov	r3, r1
 297 01c4 2046     		mov	r0, r4
 298 01c6 2946     		mov	r1, r5
 299 01c8 FFF7FEFF 		bl	__aeabi_dadd
 300 01cc 0246     		mov	r2, r0
 301 01ce 0B46     		mov	r3, r1
 302 01d0 C7E90623 		strd	r2, [r7, #24]
  62:fft.h         ****             x[i1] = x[i] - t1; 
 303              		.loc 1 62 0 discriminator 3
 304 01d4 BB6A     		ldr	r3, [r7, #40]
 305 01d6 DB00     		lsls	r3, r3, #3
 306 01d8 7A68     		ldr	r2, [r7, #4]
 307 01da D418     		adds	r4, r2, r3
 308 01dc BB6F     		ldr	r3, [r7, #120]
 309 01de DB00     		lsls	r3, r3, #3
 310 01e0 7A68     		ldr	r2, [r7, #4]
 311 01e2 1344     		add	r3, r3, r2
 312 01e4 D3E90023 		ldrd	r2, [r3]
 313 01e8 1046     		mov	r0, r2
 314 01ea 1946     		mov	r1, r3
 315 01ec D7E90823 		ldrd	r2, [r7, #32]
 316 01f0 FFF7FEFF 		bl	__aeabi_dsub
 317 01f4 0246     		mov	r2, r0
 318 01f6 0B46     		mov	r3, r1
 319 01f8 C4E90023 		strd	r2, [r4]
  63:fft.h         ****             y[i1] = y[i] - t2;
ARM GAS  C:\Users\User\AppData\Local\Temp\ccWdygM6.s 			page 8


 320              		.loc 1 63 0 discriminator 3
 321 01fc BB6A     		ldr	r3, [r7, #40]
 322 01fe DB00     		lsls	r3, r3, #3
 323 0200 3A68     		ldr	r2, [r7]
 324 0202 D418     		adds	r4, r2, r3
 325 0204 BB6F     		ldr	r3, [r7, #120]
 326 0206 DB00     		lsls	r3, r3, #3
 327 0208 3A68     		ldr	r2, [r7]
 328 020a 1344     		add	r3, r3, r2
 329 020c D3E90023 		ldrd	r2, [r3]
 330 0210 1046     		mov	r0, r2
 331 0212 1946     		mov	r1, r3
 332 0214 D7E90623 		ldrd	r2, [r7, #24]
 333 0218 FFF7FEFF 		bl	__aeabi_dsub
 334 021c 0246     		mov	r2, r0
 335 021e 0B46     		mov	r3, r1
 336 0220 C4E90023 		strd	r2, [r4]
  64:fft.h         ****             x[i] += t1;
 337              		.loc 1 64 0 discriminator 3
 338 0224 BB6F     		ldr	r3, [r7, #120]
 339 0226 DB00     		lsls	r3, r3, #3
 340 0228 7A68     		ldr	r2, [r7, #4]
 341 022a D418     		adds	r4, r2, r3
 342 022c BB6F     		ldr	r3, [r7, #120]
 343 022e DB00     		lsls	r3, r3, #3
 344 0230 7A68     		ldr	r2, [r7, #4]
 345 0232 1344     		add	r3, r3, r2
 346 0234 D3E90023 		ldrd	r2, [r3]
 347 0238 1046     		mov	r0, r2
 348 023a 1946     		mov	r1, r3
 349 023c D7E90823 		ldrd	r2, [r7, #32]
 350 0240 FFF7FEFF 		bl	__aeabi_dadd
 351 0244 0246     		mov	r2, r0
 352 0246 0B46     		mov	r3, r1
 353 0248 C4E90023 		strd	r2, [r4]
  65:fft.h         ****             y[i] += t2;
 354              		.loc 1 65 0 discriminator 3
 355 024c BB6F     		ldr	r3, [r7, #120]
 356 024e DB00     		lsls	r3, r3, #3
 357 0250 3A68     		ldr	r2, [r7]
 358 0252 D418     		adds	r4, r2, r3
 359 0254 BB6F     		ldr	r3, [r7, #120]
 360 0256 DB00     		lsls	r3, r3, #3
 361 0258 3A68     		ldr	r2, [r7]
 362 025a 1344     		add	r3, r3, r2
 363 025c D3E90023 		ldrd	r2, [r3]
 364 0260 1046     		mov	r0, r2
 365 0262 1946     		mov	r1, r3
 366 0264 D7E90623 		ldrd	r2, [r7, #24]
 367 0268 FFF7FEFF 		bl	__aeabi_dadd
 368 026c 0246     		mov	r2, r0
 369 026e 0B46     		mov	r3, r1
 370 0270 C4E90023 		strd	r2, [r4]
  58:fft.h         ****             i1 = i + l1;
 371              		.loc 1 58 0 discriminator 3
 372 0274 BA6F     		ldr	r2, [r7, #120]
 373 0276 BB6E     		ldr	r3, [r7, #104]
ARM GAS  C:\Users\User\AppData\Local\Temp\ccWdygM6.s 			page 9


 374 0278 1344     		add	r3, r3, r2
 375 027a BB67     		str	r3, [r7, #120]
 376              	.L11:
  58:fft.h         ****             i1 = i + l1;
 377              		.loc 1 58 0 is_stmt 0 discriminator 1
 378 027c BA6F     		ldr	r2, [r7, #120]
 379 027e FB6F     		ldr	r3, [r7, #124]
 380 0280 9A42     		cmp	r2, r3
 381 0282 FFF657AF 		blt	.L12
  66:fft.h         ****          }
  67:fft.h         ****          z =  u1 * c1 - u2 * c2;
 382              		.loc 1 67 0 is_stmt 1 discriminator 2
 383 0286 D7E91401 		ldrd	r0, [r7, #80]
 384 028a D7E91823 		ldrd	r2, [r7, #96]
 385 028e FFF7FEFF 		bl	__aeabi_dmul
 386 0292 0246     		mov	r2, r0
 387 0294 0B46     		mov	r3, r1
 388 0296 1446     		mov	r4, r2
 389 0298 1D46     		mov	r5, r3
 390 029a D7E91201 		ldrd	r0, [r7, #72]
 391 029e D7E91623 		ldrd	r2, [r7, #88]
 392 02a2 FFF7FEFF 		bl	__aeabi_dmul
 393 02a6 0246     		mov	r2, r0
 394 02a8 0B46     		mov	r3, r1
 395 02aa 2046     		mov	r0, r4
 396 02ac 2946     		mov	r1, r5
 397 02ae FFF7FEFF 		bl	__aeabi_dsub
 398 02b2 0246     		mov	r2, r0
 399 02b4 0B46     		mov	r3, r1
 400 02b6 C7E90423 		strd	r2, [r7, #16]
  68:fft.h         ****          u2 = u1 * c2 + u2 * c1;
 401              		.loc 1 68 0 discriminator 2
 402 02ba D7E91401 		ldrd	r0, [r7, #80]
 403 02be D7E91623 		ldrd	r2, [r7, #88]
 404 02c2 FFF7FEFF 		bl	__aeabi_dmul
 405 02c6 0246     		mov	r2, r0
 406 02c8 0B46     		mov	r3, r1
 407 02ca 1446     		mov	r4, r2
 408 02cc 1D46     		mov	r5, r3
 409 02ce D7E91201 		ldrd	r0, [r7, #72]
 410 02d2 D7E91823 		ldrd	r2, [r7, #96]
 411 02d6 FFF7FEFF 		bl	__aeabi_dmul
 412 02da 0246     		mov	r2, r0
 413 02dc 0B46     		mov	r3, r1
 414 02de 2046     		mov	r0, r4
 415 02e0 2946     		mov	r1, r5
 416 02e2 FFF7FEFF 		bl	__aeabi_dadd
 417 02e6 0246     		mov	r2, r0
 418 02e8 0B46     		mov	r3, r1
 419 02ea C7E91223 		strd	r2, [r7, #72]
  69:fft.h         ****          u1 = z;
 420              		.loc 1 69 0 discriminator 2
 421 02ee D7E90423 		ldrd	r2, [r7, #16]
 422 02f2 C7E91423 		strd	r2, [r7, #80]
  57:fft.h         ****          for (i=j;i<n;i+=l2) {
 423              		.loc 1 57 0 discriminator 2
 424 02f6 7B6F     		ldr	r3, [r7, #116]
ARM GAS  C:\Users\User\AppData\Local\Temp\ccWdygM6.s 			page 10


 425 02f8 0133     		adds	r3, r3, #1
 426 02fa 7B67     		str	r3, [r7, #116]
 427              	.L10:
  57:fft.h         ****          for (i=j;i<n;i+=l2) {
 428              		.loc 1 57 0 is_stmt 0 discriminator 1
 429 02fc 7A6F     		ldr	r2, [r7, #116]
 430 02fe FB6A     		ldr	r3, [r7, #44]
 431 0300 9A42     		cmp	r2, r3
 432 0302 FFF614AF 		blt	.L13
  70:fft.h         ****       }
  71:fft.h         ****       c2 = sqrt((1.0 - c1) / 2.0);
 433              		.loc 1 71 0 is_stmt 1
 434 0306 4FF00000 		mov	r0, #0
 435 030a 2349     		ldr	r1, .L18+4
 436 030c D7E91823 		ldrd	r2, [r7, #96]
 437 0310 FFF7FEFF 		bl	__aeabi_dsub
 438 0314 0246     		mov	r2, r0
 439 0316 0B46     		mov	r3, r1
 440 0318 1046     		mov	r0, r2
 441 031a 1946     		mov	r1, r3
 442 031c 4FF00002 		mov	r2, #0
 443 0320 4FF08043 		mov	r3, #1073741824
 444 0324 FFF7FEFF 		bl	__aeabi_ddiv
 445 0328 0246     		mov	r2, r0
 446 032a 0B46     		mov	r3, r1
 447 032c 1046     		mov	r0, r2
 448 032e 1946     		mov	r1, r3
 449 0330 FFF7FEFF 		bl	sqrt
 450 0334 C7E91601 		strd	r0, [r7, #88]
  72:fft.h         ****       if (dir == 1) 
 451              		.loc 1 72 0
 452 0338 FB68     		ldr	r3, [r7, #12]
 453 033a 012B     		cmp	r3, #1
 454 033c 05D1     		bne	.L14
  73:fft.h         ****          c2 = -c2;
 455              		.loc 1 73 0
 456 033e BB6D     		ldr	r3, [r7, #88]
 457 0340 BB65     		str	r3, [r7, #88]
 458 0342 FB6D     		ldr	r3, [r7, #92]
 459 0344 83F00043 		eor	r3, r3, #-2147483648
 460 0348 FB65     		str	r3, [r7, #92]
 461              	.L14:
  74:fft.h         ****       c1 = sqrt((1.0 + c1) / 2.0);
 462              		.loc 1 74 0 discriminator 2
 463 034a D7E91801 		ldrd	r0, [r7, #96]
 464 034e 4FF00002 		mov	r2, #0
 465 0352 114B     		ldr	r3, .L18+4
 466 0354 FFF7FEFF 		bl	__aeabi_dadd
 467 0358 0246     		mov	r2, r0
 468 035a 0B46     		mov	r3, r1
 469 035c 1046     		mov	r0, r2
 470 035e 1946     		mov	r1, r3
 471 0360 4FF00002 		mov	r2, #0
 472 0364 4FF08043 		mov	r3, #1073741824
 473 0368 FFF7FEFF 		bl	__aeabi_ddiv
 474 036c 0246     		mov	r2, r0
 475 036e 0B46     		mov	r3, r1
ARM GAS  C:\Users\User\AppData\Local\Temp\ccWdygM6.s 			page 11


 476 0370 1046     		mov	r0, r2
 477 0372 1946     		mov	r1, r3
 478 0374 FFF7FEFF 		bl	sqrt
 479 0378 C7E91801 		strd	r0, [r7, #96]
  52:fft.h         ****       l1 = l2;
 480              		.loc 1 52 0 discriminator 2
 481 037c FB6E     		ldr	r3, [r7, #108]
 482 037e 0133     		adds	r3, r3, #1
 483 0380 FB66     		str	r3, [r7, #108]
 484              	.L9:
  52:fft.h         ****       l1 = l2;
 485              		.loc 1 52 0 is_stmt 0 discriminator 1
 486 0382 FA6E     		ldr	r2, [r7, #108]
 487 0384 BB68     		ldr	r3, [r7, #8]
 488 0386 9A42     		cmp	r2, r3
 489 0388 FFF6BEAE 		blt	.L15
  75:fft.h         ****    }
  76:fft.h         **** 
  77:fft.h         ****    /* Scaling factor for forward transform */
  78:fft.h         **** //   if (dir == 1) {
  79:fft.h         **** //      for (i=0;i<n;i++) {
  80:fft.h         **** //         x[i] /= n;
  81:fft.h         **** //         y[i] /= n;
  82:fft.h         **** //      }
  83:fft.h         **** //   }
  84:fft.h         ****    
  85:fft.h         ****    for(i=0;i<N_points;i++)
 490              		.loc 1 85 0 is_stmt 1
 491 038c 0023     		movs	r3, #0
 492 038e BB67     		str	r3, [r7, #120]
 493 0390 4AE0     		b	.L16
 494              	.L19:
 495 0392 00BF     		.align	2
 496              	.L18:
 497 0394 0000F0BF 		.word	-1074790400
 498 0398 0000F03F 		.word	1072693248
 499              	.L17:
  86:fft.h         ****    {
  87:fft.h         ****     /* Absolute value */
  88:fft.h         ****    mod[i]=2*sqrt((data_re[i]*data_re[i])+(data_imm[i]*data_imm[i]))/N_points;  
 500              		.loc 1 88 0 discriminator 3
 501 039c 254A     		ldr	r2, .L20
 502 039e BB6F     		ldr	r3, [r7, #120]
 503 03a0 DB00     		lsls	r3, r3, #3
 504 03a2 1344     		add	r3, r3, r2
 505 03a4 D3E90001 		ldrd	r0, [r3]
 506 03a8 224A     		ldr	r2, .L20
 507 03aa BB6F     		ldr	r3, [r7, #120]
 508 03ac DB00     		lsls	r3, r3, #3
 509 03ae 1344     		add	r3, r3, r2
 510 03b0 D3E90023 		ldrd	r2, [r3]
 511 03b4 FFF7FEFF 		bl	__aeabi_dmul
 512 03b8 0246     		mov	r2, r0
 513 03ba 0B46     		mov	r3, r1
 514 03bc 1446     		mov	r4, r2
 515 03be 1D46     		mov	r5, r3
 516 03c0 1D4A     		ldr	r2, .L20+4
ARM GAS  C:\Users\User\AppData\Local\Temp\ccWdygM6.s 			page 12


 517 03c2 BB6F     		ldr	r3, [r7, #120]
 518 03c4 DB00     		lsls	r3, r3, #3
 519 03c6 1344     		add	r3, r3, r2
 520 03c8 D3E90001 		ldrd	r0, [r3]
 521 03cc 1A4A     		ldr	r2, .L20+4
 522 03ce BB6F     		ldr	r3, [r7, #120]
 523 03d0 DB00     		lsls	r3, r3, #3
 524 03d2 1344     		add	r3, r3, r2
 525 03d4 D3E90023 		ldrd	r2, [r3]
 526 03d8 FFF7FEFF 		bl	__aeabi_dmul
 527 03dc 0246     		mov	r2, r0
 528 03de 0B46     		mov	r3, r1
 529 03e0 2046     		mov	r0, r4
 530 03e2 2946     		mov	r1, r5
 531 03e4 FFF7FEFF 		bl	__aeabi_dadd
 532 03e8 0246     		mov	r2, r0
 533 03ea 0B46     		mov	r3, r1
 534 03ec 1046     		mov	r0, r2
 535 03ee 1946     		mov	r1, r3
 536 03f0 FFF7FEFF 		bl	sqrt
 537 03f4 0246     		mov	r2, r0
 538 03f6 0B46     		mov	r3, r1
 539 03f8 1046     		mov	r0, r2
 540 03fa 1946     		mov	r1, r3
 541 03fc FFF7FEFF 		bl	__aeabi_dadd
 542 0400 0246     		mov	r2, r0
 543 0402 0B46     		mov	r3, r1
 544 0404 1046     		mov	r0, r2
 545 0406 1946     		mov	r1, r3
 546 0408 4FF00002 		mov	r2, #0
 547 040c 0B4B     		ldr	r3, .L20+8
 548 040e FFF7FEFF 		bl	__aeabi_ddiv
 549 0412 0246     		mov	r2, r0
 550 0414 0B46     		mov	r3, r1
 551 0416 0A48     		ldr	r0, .L20+12
 552 0418 B96F     		ldr	r1, [r7, #120]
 553 041a C900     		lsls	r1, r1, #3
 554 041c 0144     		add	r1, r1, r0
 555 041e C1E90023 		strd	r2, [r1]
  85:fft.h         ****    {
 556              		.loc 1 85 0 discriminator 3
 557 0422 BB6F     		ldr	r3, [r7, #120]
 558 0424 0133     		adds	r3, r3, #1
 559 0426 BB67     		str	r3, [r7, #120]
 560              	.L16:
  85:fft.h         ****    {
 561              		.loc 1 85 0 is_stmt 0 discriminator 1
 562 0428 BB6F     		ldr	r3, [r7, #120]
 563 042a 3F2B     		cmp	r3, #63
 564 042c B6DD     		ble	.L17
  89:fft.h         ****    }
  90:fft.h         **** }
 565              		.loc 1 90 0 is_stmt 1
 566 042e 8037     		adds	r7, r7, #128
 567              		.cfi_def_cfa_offset 16
 568 0430 BD46     		mov	sp, r7
 569              		.cfi_def_cfa_register 13
ARM GAS  C:\Users\User\AppData\Local\Temp\ccWdygM6.s 			page 13


 570              		@ sp needed
 571 0432 B0BD     		pop	{r4, r5, r7, pc}
 572              	.L21:
 573              		.align	2
 574              	.L20:
 575 0434 00000000 		.word	data_re
 576 0438 00000000 		.word	data_imm
 577 043c 00005040 		.word	1078984704
 578 0440 00000000 		.word	mod
 579              		.cfi_endproc
 580              	.LFE63:
 581              		.size	FFT, .-FFT
 582              		.section	.text.calculate_50Hz_Amp,"ax",%progbits
 583              		.align	2
 584              		.global	calculate_50Hz_Amp
 585              		.thumb
 586              		.thumb_func
 587              		.type	calculate_50Hz_Amp, %function
 588              	calculate_50Hz_Amp:
 589              	.LFB64:
  91:fft.h         **** 
  92:fft.h         **** double calculate_50Hz_Amp()
  93:fft.h         **** {
 590              		.loc 1 93 0
 591              		.cfi_startproc
 592              		@ args = 0, pretend = 0, frame = 0
 593              		@ frame_needed = 1, uses_anonymous_args = 0
 594              		@ link register save eliminated.
 595 0000 80B4     		push	{r7}
 596              		.cfi_def_cfa_offset 4
 597              		.cfi_offset 7, -4
 598 0002 00AF     		add	r7, sp, #0
 599              		.cfi_def_cfa_register 7
  94:fft.h         **** //    double fsample = 1067;  
  95:fft.h         **** //    double delta_f_bin = fsample/N_points;
  96:fft.h         **** //    int bin_number = frekvens/delta_f_bin;
  97:fft.h         ****     
  98:fft.h         ****     return mod[3];
 600              		.loc 1 98 0
 601 0004 044B     		ldr	r3, .L24
 602 0006 D3E90623 		ldrd	r2, [r3, #24]
  99:fft.h         ****     
 100:fft.h         ****     
 101:fft.h         **** }
 603              		.loc 1 101 0
 604 000a 1046     		mov	r0, r2
 605 000c 1946     		mov	r1, r3
 606 000e BD46     		mov	sp, r7
 607              		.cfi_def_cfa_register 13
 608              		@ sp needed
 609 0010 5DF8047B 		ldr	r7, [sp], #4
 610              		.cfi_restore 7
 611              		.cfi_def_cfa_offset 0
 612 0014 7047     		bx	lr
 613              	.L25:
 614 0016 00BF     		.align	2
 615              	.L24:
ARM GAS  C:\Users\User\AppData\Local\Temp\ccWdygM6.s 			page 14


 616 0018 00000000 		.word	mod
 617              		.cfi_endproc
 618              	.LFE64:
 619              		.size	calculate_50Hz_Amp, .-calculate_50Hz_Amp
 620              		.section	.text.calculate_50Hz_RMS,"ax",%progbits
 621              		.align	2
 622              		.global	calculate_50Hz_RMS
 623              		.thumb
 624              		.thumb_func
 625              		.type	calculate_50Hz_RMS, %function
 626              	calculate_50Hz_RMS:
 627              	.LFB65:
 102:fft.h         **** 
 103:fft.h         **** double calculate_50Hz_RMS()
 104:fft.h         **** {
 628              		.loc 1 104 0
 629              		.cfi_startproc
 630              		@ args = 0, pretend = 0, frame = 0
 631              		@ frame_needed = 1, uses_anonymous_args = 0
 632 0000 80B5     		push	{r7, lr}
 633              		.cfi_def_cfa_offset 8
 634              		.cfi_offset 7, -8
 635              		.cfi_offset 14, -4
 636 0002 00AF     		add	r7, sp, #0
 637              		.cfi_def_cfa_register 7
 105:fft.h         ****     return mod[3]/sqrt(2);  
 638              		.loc 1 105 0
 639 0004 0A4B     		ldr	r3, .L28+8
 640 0006 D3E90623 		ldrd	r2, [r3, #24]
 641 000a 1046     		mov	r0, r2
 642 000c 1946     		mov	r1, r3
 643 000e 06A3     		adr	r3, .L28
 644 0010 D3E90023 		ldrd	r2, [r3]
 645 0014 FFF7FEFF 		bl	__aeabi_ddiv
 646 0018 0246     		mov	r2, r0
 647 001a 0B46     		mov	r3, r1
 106:fft.h         **** }
 648              		.loc 1 106 0
 649 001c 1046     		mov	r0, r2
 650 001e 1946     		mov	r1, r3
 651 0020 80BD     		pop	{r7, pc}
 652              	.L29:
 653 0022 00BFAFF3 		.align	3
 653      0080
 654              	.L28:
 655 0028 CD3B7F66 		.word	1719614413
 656 002c 9EA0F63F 		.word	1073127582
 657 0030 00000000 		.word	mod
 658              		.cfi_endproc
 659              	.LFE65:
 660              		.size	calculate_50Hz_RMS, .-calculate_50Hz_RMS
 661 0034 AFF30080 		.section	.rodata
 662              		.align	3
 663              	.LC0:
 664 0000 00000000 		.word	0
 665 0004 00F8AA40 		.word	1084946432
 666 0008 00000000 		.word	0
ARM GAS  C:\Users\User\AppData\Local\Temp\ccWdygM6.s 			page 15


 667 000c 00F6AB40 		.word	1085011456
 668 0010 00000000 		.word	0
 669 0014 001EAC40 		.word	1085021696
 670 0018 00000000 		.word	0
 671 001c 006AAB40 		.word	1084975616
 672 0020 00000000 		.word	0
 673 0024 00EEA940 		.word	1084878336
 674 0028 00000000 		.word	0
 675 002c 00D0A740 		.word	1084739584
 676 0030 00000000 		.word	0
 677 0034 004CA540 		.word	1084574720
 678 0038 00000000 		.word	0
 679 003c 00A4A240 		.word	1084400640
 680 0040 00000000 		.word	0
 681 0044 001EA040 		.word	1084235264
 682 0048 00000000 		.word	0
 683 004c 00009C40 		.word	1083965440
 684 0050 00000000 		.word	0
 685 0054 00009940 		.word	1083768832
 686 0058 00000000 		.word	0
 687 005c 00989740 		.word	1083676672
 688 0060 00000000 		.word	0
 689 0064 00E09740 		.word	1083695104
 690 0068 00000000 		.word	0
 691 006c 00D89940 		.word	1083824128
 692 0070 00000000 		.word	0
 693 0074 004C9D40 		.word	1084050432
 694 0078 00000000 		.word	0
 695 007c 00F0A040 		.word	1084289024
 696 0080 00000000 		.word	0
 697 0084 0088A340 		.word	1084459008
 698 0088 00000000 		.word	0
 699 008c 002CA640 		.word	1084632064
 700 0090 00000000 		.word	0
 701 0094 0096A840 		.word	1084790272
 702 0098 00000000 		.word	0
 703 009c 0082AA40 		.word	1084916224
 704 00a0 00000000 		.word	0
 705 00a4 00F8AA40 		.word	1084946432
 706 00a8 00000000 		.word	0
 707 00ac 00F6AB40 		.word	1085011456
 708 00b0 00000000 		.word	0
 709 00b4 001EAC40 		.word	1085021696
 710 00b8 00000000 		.word	0
 711 00bc 006AAB40 		.word	1084975616
 712 00c0 00000000 		.word	0
 713 00c4 00EEA940 		.word	1084878336
 714 00c8 00000000 		.word	0
 715 00cc 00D0A740 		.word	1084739584
 716 00d0 00000000 		.word	0
 717 00d4 004CA540 		.word	1084574720
 718 00d8 00000000 		.word	0
 719 00dc 00A4A240 		.word	1084400640
 720 00e0 00000000 		.word	0
 721 00e4 001EA040 		.word	1084235264
 722 00e8 00000000 		.word	0
 723 00ec 00009C40 		.word	1083965440
ARM GAS  C:\Users\User\AppData\Local\Temp\ccWdygM6.s 			page 16


 724 00f0 00000000 		.word	0
 725 00f4 00009940 		.word	1083768832
 726 00f8 00000000 		.word	0
 727 00fc 00989740 		.word	1083676672
 728 0100 00000000 		.word	0
 729 0104 00E09740 		.word	1083695104
 730 0108 00000000 		.word	0
 731 010c 00D89940 		.word	1083824128
 732 0110 00000000 		.word	0
 733 0114 004C9D40 		.word	1084050432
 734 0118 00000000 		.word	0
 735 011c 00F0A040 		.word	1084289024
 736 0120 00000000 		.word	0
 737 0124 0088A340 		.word	1084459008
 738 0128 00000000 		.word	0
 739 012c 002CA640 		.word	1084632064
 740 0130 00000000 		.word	0
 741 0134 0096A840 		.word	1084790272
 742 0138 00000000 		.word	0
 743 013c 0082AA40 		.word	1084916224
 744 0140 00000000 		.word	0
 745 0144 00F8AA40 		.word	1084946432
 746 0148 00000000 		.word	0
 747 014c 00F6AB40 		.word	1085011456
 748 0150 00000000 		.word	0
 749 0154 001EAC40 		.word	1085021696
 750 0158 00000000 		.word	0
 751 015c 006AAB40 		.word	1084975616
 752 0160 00000000 		.word	0
 753 0164 00EEA940 		.word	1084878336
 754 0168 00000000 		.word	0
 755 016c 00D0A740 		.word	1084739584
 756 0170 00000000 		.word	0
 757 0174 004CA540 		.word	1084574720
 758 0178 00000000 		.word	0
 759 017c 00A4A240 		.word	1084400640
 760 0180 00000000 		.word	0
 761 0184 001EA040 		.word	1084235264
 762 0188 00000000 		.word	0
 763 018c 00009C40 		.word	1083965440
 764 0190 00000000 		.word	0
 765 0194 00009940 		.word	1083768832
 766 0198 00000000 		.word	0
 767 019c 00989740 		.word	1083676672
 768 01a0 00000000 		.word	0
 769 01a4 00E09740 		.word	1083695104
 770 01a8 00000000 		.word	0
 771 01ac 00D89940 		.word	1083824128
 772 01b0 00000000 		.word	0
 773 01b4 004C9D40 		.word	1084050432
 774 01b8 00000000 		.word	0
 775 01bc 00F0A040 		.word	1084289024
 776 01c0 00000000 		.word	0
 777 01c4 0088A340 		.word	1084459008
 778 01c8 00000000 		.word	0
 779 01cc 002CA640 		.word	1084632064
 780 01d0 00000000 		.word	0
ARM GAS  C:\Users\User\AppData\Local\Temp\ccWdygM6.s 			page 17


 781 01d4 0096A840 		.word	1084790272
 782 01d8 00000000 		.word	0
 783 01dc 0082AA40 		.word	1084916224
 784 01e0 00000000 		.word	0
 785 01e4 00F8AA40 		.word	1084946432
 786 01e8 00000000 		.word	0
 787 01ec 00F6AB40 		.word	1085011456
 788 01f0 00000000 		.word	0
 789 01f4 001EAC40 		.word	1085021696
 790 01f8 00000000 		.word	0
 791 01fc 006AAB40 		.word	1084975616
 792              		.section	.text.main,"ax",%progbits
 793              		.align	2
 794              		.global	main
 795              		.thumb
 796              		.thumb_func
 797              		.type	main, %function
 798              	main:
 799              	.LFB66:
 800              		.file 2 "main.c"
   1:main.c        **** /* ========================================
   2:main.c        ****  *
   3:main.c        ****  * Copyright YOUR COMPANY, THE YEAR
   4:main.c        ****  * All Rights Reserved
   5:main.c        ****  * UNPUBLISHED, LICENSED SOFTWARE.
   6:main.c        ****  *
   7:main.c        ****  * CONFIDENTIAL AND PROPRIETARY INFORMATION
   8:main.c        ****  * WHICH IS THE PROPERTY OF your company.
   9:main.c        ****  *
  10:main.c        ****  * ========================================
  11:main.c        **** */
  12:main.c        **** #include "project.h"
  13:main.c        **** #include "fft.h"
  14:main.c        **** 
  15:main.c        **** 
  16:main.c        **** int main(void)
  17:main.c        **** {
 801              		.loc 2 17 0
 802              		.cfi_startproc
 803              		@ args = 0, pretend = 0, frame = 536
 804              		@ frame_needed = 1, uses_anonymous_args = 0
 805 0000 80B5     		push	{r7, lr}
 806              		.cfi_def_cfa_offset 8
 807              		.cfi_offset 7, -8
 808              		.cfi_offset 14, -4
 809 0002 ADF5067D 		sub	sp, sp, #536
 810              		.cfi_def_cfa_offset 544
 811 0006 00AF     		add	r7, sp, #0
 812              		.cfi_def_cfa_register 7
  18:main.c        ****     CyGlobalIntEnable; /* Enable global interrupts. */
 813              		.loc 2 18 0
 814              	@ 18 "main.c" 1
 815 0008 62B6     		CPSIE   i
 816              	@ 0 "" 2
  19:main.c        ****     int p = 0;
 817              		.loc 2 19 0
 818              		.thumb
ARM GAS  C:\Users\User\AppData\Local\Temp\ccWdygM6.s 			page 18


 819 000a 0023     		movs	r3, #0
 820 000c C7F81432 		str	r3, [r7, #532]
  20:main.c        **** 
  21:main.c        ****     double Amp = 0;
 821              		.loc 2 21 0
 822 0010 4FF00002 		mov	r2, #0
 823 0014 4FF00003 		mov	r3, #0
 824 0018 07F50271 		add	r1, r7, #520
 825 001c C1E90023 		strd	r2, [r1]
  22:main.c        ****     double RMS = 0;
 826              		.loc 2 22 0
 827 0020 4FF00002 		mov	r2, #0
 828 0024 4FF00003 		mov	r3, #0
 829 0028 07F50071 		add	r1, r7, #512
 830 002c C1E90023 		strd	r2, [r1]
  23:main.c        ****     
  24:main.c        ****     
  25:main.c        ****     
  26:main.c        ****     double samples[N_points] = {3452,3579,3599,3509,3319,3048,2726,2386,2063,1792,1600,1510,1528,16
 831              		.loc 2 26 0
 832 0030 3B46     		mov	r3, r7
 833 0032 1D4A     		ldr	r2, .L34
 834 0034 1946     		mov	r1, r3
 835 0036 4FF40073 		mov	r3, #512
 836 003a 0846     		mov	r0, r1
 837 003c 1146     		mov	r1, r2
 838 003e 1A46     		mov	r2, r3
 839 0040 FFF7FEFF 		bl	memcpy
 840              	.L33:
  27:main.c        ****       
  28:main.c        ****     while(1)
  29:main.c        ****     {
  30:main.c        ****     p = 0;
 841              		.loc 2 30 0
 842 0044 0023     		movs	r3, #0
 843 0046 C7F81432 		str	r3, [r7, #532]
  31:main.c        ****     /* Place your initialization/startup code here (e.g. MyInst_Start()) */
  32:main.c        ****     
  33:main.c        ****     for(p = 0; p<N_points ; p++)
 844              		.loc 2 33 0
 845 004a 0023     		movs	r3, #0
 846 004c C7F81432 		str	r3, [r7, #532]
 847 0050 12E0     		b	.L31
 848              	.L32:
  34:main.c        ****     {
  35:main.c        ****         data_re[p] = samples[p];
 849              		.loc 2 35 0 discriminator 3
 850 0052 3A46     		mov	r2, r7
 851 0054 D7F81432 		ldr	r3, [r7, #532]
 852 0058 DB00     		lsls	r3, r3, #3
 853 005a 1344     		add	r3, r3, r2
 854 005c D3E90023 		ldrd	r2, [r3]
 855 0060 1248     		ldr	r0, .L34+4
 856 0062 D7F81412 		ldr	r1, [r7, #532]
 857 0066 C900     		lsls	r1, r1, #3
 858 0068 0144     		add	r1, r1, r0
 859 006a C1E90023 		strd	r2, [r1]
ARM GAS  C:\Users\User\AppData\Local\Temp\ccWdygM6.s 			page 19


  33:main.c        ****     {
 860              		.loc 2 33 0 discriminator 3
 861 006e D7F81432 		ldr	r3, [r7, #532]
 862 0072 0133     		adds	r3, r3, #1
 863 0074 C7F81432 		str	r3, [r7, #532]
 864              	.L31:
  33:main.c        ****     {
 865              		.loc 2 33 0 is_stmt 0 discriminator 1
 866 0078 D7F81432 		ldr	r3, [r7, #532]
 867 007c 3F2B     		cmp	r3, #63
 868 007e E8DD     		ble	.L32
  36:main.c        ****     }
  37:main.c        ****     
  38:main.c        ****     FFT(1,exponent,data_re,data_imm);
 869              		.loc 2 38 0 is_stmt 1
 870 0080 0120     		movs	r0, #1
 871 0082 0621     		movs	r1, #6
 872 0084 094A     		ldr	r2, .L34+4
 873 0086 0A4B     		ldr	r3, .L34+8
 874 0088 FFF7FEFF 		bl	FFT
  39:main.c        ****     
  40:main.c        ****     Amp = calculate_50Hz_Amp();
 875              		.loc 2 40 0
 876 008c FFF7FEFF 		bl	calculate_50Hz_Amp
 877 0090 07F50273 		add	r3, r7, #520
 878 0094 C3E90001 		strd	r0, [r3]
  41:main.c        ****     RMS = calculate_50Hz_RMS();
 879              		.loc 2 41 0
 880 0098 FFF7FEFF 		bl	calculate_50Hz_RMS
 881 009c 07F50073 		add	r3, r7, #512
 882 00a0 C3E90001 		strd	r0, [r3]
  42:main.c        ****  
  43:main.c        ****     
  44:main.c        ****     
  45:main.c        ****     }
 883              		.loc 2 45 0
 884 00a4 CEE7     		b	.L33
 885              	.L35:
 886 00a6 00BF     		.align	2
 887              	.L34:
 888 00a8 00000000 		.word	.LC0
 889 00ac 00000000 		.word	data_re
 890 00b0 00000000 		.word	data_imm
 891              		.cfi_endproc
 892              	.LFE66:
 893              		.size	main, .-main
 894              		.text
 895              	.Letext0:
 896              		.file 3 "c:\\program files (x86)\\cypress\\psoc creator\\4.0\\psoc creator\\import\\gnu\\arm\\4.9.
 897              		.file 4 "c:\\program files (x86)\\cypress\\psoc creator\\4.0\\psoc creator\\import\\gnu\\arm\\4.9.
 898              		.file 5 "Generated_Source\\PSoC5/core_cm3.h"