ARM GAS  C:\Users\Soren\AppData\Local\Temp\ccpJsL9b.s 			page 1


   1              		.syntax unified
   2              		.cpu cortex-m3
   3              		.fpu softvfp
   4              		.eabi_attribute 20, 1
   5              		.eabi_attribute 21, 1
   6              		.eabi_attribute 23, 3
   7              		.eabi_attribute 24, 1
   8              		.eabi_attribute 25, 1
   9              		.eabi_attribute 26, 1
  10              		.eabi_attribute 30, 6
  11              		.eabi_attribute 34, 1
  12              		.eabi_attribute 18, 4
  13              		.thumb
  14              		.file	"main.c"
  15              		.text
  16              	.Ltext0:
  17              		.cfi_sections	.debug_frame
  18              		.section	.text.main,"ax",%progbits
  19              		.align	2
  20              		.global	main
  21              		.thumb
  22              		.thumb_func
  23              		.type	main, %function
  24              	main:
  25              	.LFB63:
  26              		.file 1 "main.c"
   1:main.c        **** /* ========================================
   2:main.c        ****  *
   3:main.c        ****  * Copyright YOUR COMPANY, THE YEAR
   4:main.c        ****  * All Rights Reserved
   5:main.c        ****  * UNPUBLISHED, LICENSED SOFTWARE.
   6:main.c        ****  *
   7:main.c        ****  * CONFIDENTIAL AND PROPRIETARY INFORMATION
   8:main.c        ****  * WHICH IS THE PROPERTY OF your company.
   9:main.c        ****  *
  10:main.c        ****  * ========================================
  11:main.c        **** */
  12:main.c        **** #include "project.h"
  13:main.c        **** #include "stdio.h"
  14:main.c        **** #define SIZE 128
  15:main.c        **** 
  16:main.c        **** int main(void)
  17:main.c        **** {
  27              		.loc 1 17 0
  28              		.cfi_startproc
  29              		@ args = 0, pretend = 0, frame = 528
  30              		@ frame_needed = 1, uses_anonymous_args = 0
  31 0000 90B5     		push	{r4, r7, lr}
  32              		.cfi_def_cfa_offset 12
  33              		.cfi_offset 4, -12
  34              		.cfi_offset 7, -8
  35              		.cfi_offset 14, -4
  36 0002 ADF5057D 		sub	sp, sp, #532
  37              		.cfi_def_cfa_offset 544
  38 0006 00AF     		add	r7, sp, #0
  39              		.cfi_def_cfa_register 7
  18:main.c        ****     //CyGlobalIntEnable; /* Enable global interrupts. */
ARM GAS  C:\Users\Soren\AppData\Local\Temp\ccpJsL9b.s 			page 2


  19:main.c        **** 
  20:main.c        ****     /* Place your initialization/startup code here (e.g. MyInst_Start()) */
  21:main.c        ****     
  22:main.c        ****     ADC_DelSig_1_Start();
  40              		.loc 1 22 0
  41 0008 FFF7FEFF 		bl	ADC_DelSig_1_Start
  23:main.c        ****     ADC_DelSig_1_StartConvert();
  42              		.loc 1 23 0
  43 000c FFF7FEFF 		bl	ADC_DelSig_1_StartConvert
  24:main.c        ****     
  25:main.c        ****     AMux_1_Start();
  44              		.loc 1 25 0
  45 0010 FFF7FEFF 		bl	AMux_1_Start
  26:main.c        ****     AMux_2_Start();
  46              		.loc 1 26 0
  47 0014 FFF7FEFF 		bl	AMux_2_Start
  27:main.c        ****     
  28:main.c        ****     int SampleArrayU[SIZE/2]={0};
  48              		.loc 1 28 0
  49 0018 07F58273 		add	r3, r7, #260
  50 001c 1A46     		mov	r2, r3
  51 001e 4FF48073 		mov	r3, #256
  52 0022 1046     		mov	r0, r2
  53 0024 0021     		movs	r1, #0
  54 0026 1A46     		mov	r2, r3
  55 0028 FFF7FEFF 		bl	memset
  29:main.c        ****     int SampleArrayI[SIZE/2]={0};
  56              		.loc 1 29 0
  57 002c 3B1D     		adds	r3, r7, #4
  58 002e 1A46     		mov	r2, r3
  59 0030 4FF48073 		mov	r3, #256
  60 0034 1046     		mov	r0, r2
  61 0036 0021     		movs	r1, #0
  62 0038 1A46     		mov	r2, r3
  63 003a FFF7FEFF 		bl	memset
  64              	.L7:
  65              	.LBB2:
  30:main.c        ****     
  31:main.c        ****     int i, debugValue, dV;
  32:main.c        ****     for(;;)
  33:main.c        ****     {
  34:main.c        ****         /* Place your application code here. */
  35:main.c        ****         //test_Write(1);
  36:main.c        ****          int indexU = 0, indexI = 0;
  66              		.loc 1 36 0
  67 003e 0023     		movs	r3, #0
  68 0040 C7F80832 		str	r3, [r7, #520]
  69 0044 0023     		movs	r3, #0
  70 0046 C7F80432 		str	r3, [r7, #516]
  37:main.c        ****         for(i=0;i<SIZE;i++)
  71              		.loc 1 37 0
  72 004a 0023     		movs	r3, #0
  73 004c C7F80C32 		str	r3, [r7, #524]
  74 0050 44E0     		b	.L2
  75              	.L6:
  38:main.c        ****         {
  39:main.c        ****            //CyDelay(1); 
ARM GAS  C:\Users\Soren\AppData\Local\Temp\ccpJsL9b.s 			page 3


  40:main.c        ****             test_Write(1);
  76              		.loc 1 40 0
  77 0052 0120     		movs	r0, #1
  78 0054 FFF7FEFF 		bl	test_Write
  41:main.c        ****             if(i%2 == 0)
  79              		.loc 1 41 0
  80 0058 D7F80C32 		ldr	r3, [r7, #524]
  81 005c 03F00103 		and	r3, r3, #1
  82 0060 002B     		cmp	r3, #0
  83 0062 17D1     		bne	.L3
  42:main.c        ****             {
  43:main.c        ****                 //Skriver spændingsmålong i ArrayU
  44:main.c        ****                 AMux_1_FastSelect(0u);
  84              		.loc 1 44 0
  85 0064 0020     		movs	r0, #0
  86 0066 FFF7FEFF 		bl	AMux_1_FastSelect
  45:main.c        ****                 AMux_2_FastSelect(0u);
  87              		.loc 1 45 0
  88 006a 0020     		movs	r0, #0
  89 006c FFF7FEFF 		bl	AMux_2_FastSelect
  46:main.c        ****                 //while(!ADC_DelSig_1_IsEndConversion(ADC_DelSig_1_RETURN_STATUS));
  47:main.c        ****                 SampleArrayU[indexU++] = ADC_DelSig_1_CountsTo_mVolts( ADC_DelSig_1_Read16());
  90              		.loc 1 47 0
  91 0070 D7F80842 		ldr	r4, [r7, #520]
  92 0074 631C     		adds	r3, r4, #1
  93 0076 C7F80832 		str	r3, [r7, #520]
  94 007a FFF7FEFF 		bl	ADC_DelSig_1_Read16
  95 007e 0346     		mov	r3, r0
  96 0080 1846     		mov	r0, r3
  97 0082 FFF7FEFF 		bl	ADC_DelSig_1_CountsTo_mVolts
  98 0086 0346     		mov	r3, r0
  99 0088 1A46     		mov	r2, r3
 100 008a 07F58273 		add	r3, r7, #260
 101 008e 43F82420 		str	r2, [r3, r4, lsl #2]
 102 0092 15E0     		b	.L4
 103              	.L3:
  48:main.c        ****                 //test_Write(1);
  49:main.c        ****             }else
  50:main.c        ****             {
  51:main.c        ****                 //Skriver strømmåling i ArrayI
  52:main.c        ****                 AMux_1_FastSelect(1u);
 104              		.loc 1 52 0
 105 0094 0120     		movs	r0, #1
 106 0096 FFF7FEFF 		bl	AMux_1_FastSelect
  53:main.c        ****                 AMux_2_FastSelect(1u);
 107              		.loc 1 53 0
 108 009a 0120     		movs	r0, #1
 109 009c FFF7FEFF 		bl	AMux_2_FastSelect
  54:main.c        ****                 //while(!ADC_DelSig_1_IsEndConversion(ADC_DelSig_1_RETURN_STATUS));
  55:main.c        ****                 SampleArrayI[indexI++] = ADC_DelSig_1_CountsTo_mVolts( ADC_DelSig_1_Read16());
 110              		.loc 1 55 0
 111 00a0 D7F80442 		ldr	r4, [r7, #516]
 112 00a4 631C     		adds	r3, r4, #1
 113 00a6 C7F80432 		str	r3, [r7, #516]
 114 00aa FFF7FEFF 		bl	ADC_DelSig_1_Read16
 115 00ae 0346     		mov	r3, r0
 116 00b0 1846     		mov	r0, r3
ARM GAS  C:\Users\Soren\AppData\Local\Temp\ccpJsL9b.s 			page 4


 117 00b2 FFF7FEFF 		bl	ADC_DelSig_1_CountsTo_mVolts
 118 00b6 0346     		mov	r3, r0
 119 00b8 1A46     		mov	r2, r3
 120 00ba 3B1D     		adds	r3, r7, #4
 121 00bc 43F82420 		str	r2, [r3, r4, lsl #2]
 122              	.L4:
  56:main.c        ****                 //test_Write(0);
  57:main.c        ****                 
  58:main.c        ****             }
  59:main.c        **** 
  60:main.c        **** //            debugValue = SampleArrayU[i];
  61:main.c        **** //            dV = SampleArrayI[i];
  62:main.c        ****             if(i%2 != 0)
 123              		.loc 1 62 0
 124 00c0 D7F80C32 		ldr	r3, [r7, #524]
 125 00c4 03F00103 		and	r3, r3, #1
 126 00c8 002B     		cmp	r3, #0
 127 00ca 02D0     		beq	.L5
  63:main.c        ****             CyDelayUs(40);
 128              		.loc 1 63 0
 129 00cc 2820     		movs	r0, #40
 130 00ce FFF7FEFF 		bl	CyDelayUs
 131              	.L5:
  37:main.c        ****         {
 132              		.loc 1 37 0 discriminator 2
 133 00d2 D7F80C32 		ldr	r3, [r7, #524]
 134 00d6 0133     		adds	r3, r3, #1
 135 00d8 C7F80C32 		str	r3, [r7, #524]
 136              	.L2:
  37:main.c        ****         {
 137              		.loc 1 37 0 is_stmt 0 discriminator 1
 138 00dc D7F80C32 		ldr	r3, [r7, #524]
 139 00e0 7F2B     		cmp	r3, #127
 140 00e2 B6DD     		ble	.L6
  64:main.c        ****         }
  65:main.c        ****         test_Write(0);
 141              		.loc 1 65 0 is_stmt 1
 142 00e4 0020     		movs	r0, #0
 143 00e6 FFF7FEFF 		bl	test_Write
  66:main.c        ****         //printf("Hello %d %d",debugValue,dV);
  67:main.c        ****         CyDelay(1000);
 144              		.loc 1 67 0
 145 00ea 4FF47A70 		mov	r0, #1000
 146 00ee FFF7FEFF 		bl	CyDelay
 147              	.LBE2:
  68:main.c        ****         //test_Write(0);
  69:main.c        ****     }
 148              		.loc 1 69 0
 149 00f2 A4E7     		b	.L7
 150              		.cfi_endproc
 151              	.LFE63:
 152              		.size	main, .-main
 153              		.text
 154              	.Letext0:
 155              		.file 2 "c:\\program files (x86)\\cypress\\psoc creator\\4.0\\psoc creator\\import\\gnu\\arm\\4.9.
 156              		.file 3 "c:\\program files (x86)\\cypress\\psoc creator\\4.0\\psoc creator\\import\\gnu\\arm\\4.9.
 157              		.file 4 "Generated_Source\\PSoC5/core_cm3.h"
ARM GAS  C:\Users\Soren\AppData\Local\Temp\ccpJsL9b.s 			page 5

