ARM GAS  C:\Users\User\AppData\Local\Temp\ccGddIjf.s 			page 1


   1              		.syntax unified
   2              		.cpu cortex-m3
   3              		.fpu softvfp
   4              		.eabi_attribute 20, 1
   5              		.eabi_attribute 21, 1
   6              		.eabi_attribute 23, 3
   7              		.eabi_attribute 24, 1
   8              		.eabi_attribute 25, 1
   9              		.eabi_attribute 26, 1
  10              		.eabi_attribute 30, 6
  11              		.eabi_attribute 34, 1
  12              		.eabi_attribute 18, 4
  13              		.thumb
  14              		.file	"cyfitter_cfg.c"
  15              		.text
  16              	.Ltext0:
  17              		.cfi_sections	.debug_frame
  18              		.section	.text.CYMEMZERO,"ax",%progbits
  19              		.align	2
  20              		.thumb
  21              		.thumb_func
  22              		.type	CYMEMZERO, %function
  23              	CYMEMZERO:
  24              	.LFB0:
  25              		.file 1 "Generated_Source\\PSoC5\\cyfitter_cfg.c"
   1:Generated_Source\PSoC5/cyfitter_cfg.c **** /*******************************************************************************
   2:Generated_Source\PSoC5/cyfitter_cfg.c **** * File Name: cyfitter_cfg.c
   3:Generated_Source\PSoC5/cyfitter_cfg.c **** * 
   4:Generated_Source\PSoC5/cyfitter_cfg.c **** * PSoC Creator  4.0 Update 1
   5:Generated_Source\PSoC5/cyfitter_cfg.c **** *
   6:Generated_Source\PSoC5/cyfitter_cfg.c **** * Description:
   7:Generated_Source\PSoC5/cyfitter_cfg.c **** * This file contains device initialization code.
   8:Generated_Source\PSoC5/cyfitter_cfg.c **** * Except for the user defined sections in CyClockStartupError(), this file should not be modified.
   9:Generated_Source\PSoC5/cyfitter_cfg.c **** * This file is automatically generated by PSoC Creator.
  10:Generated_Source\PSoC5/cyfitter_cfg.c **** *
  11:Generated_Source\PSoC5/cyfitter_cfg.c **** ********************************************************************************
  12:Generated_Source\PSoC5/cyfitter_cfg.c **** * Copyright (c) 2007-2016 Cypress Semiconductor.  All rights reserved.
  13:Generated_Source\PSoC5/cyfitter_cfg.c **** * You may use this file only in accordance with the license, terms, conditions, 
  14:Generated_Source\PSoC5/cyfitter_cfg.c **** * disclaimers, and limitations in the end user license agreement accompanying 
  15:Generated_Source\PSoC5/cyfitter_cfg.c **** * the software package with which this file was provided.
  16:Generated_Source\PSoC5/cyfitter_cfg.c **** ********************************************************************************/
  17:Generated_Source\PSoC5/cyfitter_cfg.c **** 
  18:Generated_Source\PSoC5/cyfitter_cfg.c **** #include <string.h>
  19:Generated_Source\PSoC5/cyfitter_cfg.c **** #include "cytypes.h"
  20:Generated_Source\PSoC5/cyfitter_cfg.c **** #include "cydevice_trm.h"
  21:Generated_Source\PSoC5/cyfitter_cfg.c **** #include "cyfitter.h"
  22:Generated_Source\PSoC5/cyfitter_cfg.c **** #include "CyLib.h"
  23:Generated_Source\PSoC5/cyfitter_cfg.c **** #include "cyfitter_cfg.h"
  24:Generated_Source\PSoC5/cyfitter_cfg.c **** #include "cyapicallbacks.h"
  25:Generated_Source\PSoC5/cyfitter_cfg.c **** 
  26:Generated_Source\PSoC5/cyfitter_cfg.c **** #define CY_NEED_CYCLOCKSTARTUPERROR 1
  27:Generated_Source\PSoC5/cyfitter_cfg.c **** 
  28:Generated_Source\PSoC5/cyfitter_cfg.c **** 
  29:Generated_Source\PSoC5/cyfitter_cfg.c **** #if defined(__GNUC__) || defined(__ARMCC_VERSION)
  30:Generated_Source\PSoC5/cyfitter_cfg.c ****     #define CYPACKED 
  31:Generated_Source\PSoC5/cyfitter_cfg.c ****     #define CYPACKED_ATTR __attribute__ ((packed))
  32:Generated_Source\PSoC5/cyfitter_cfg.c ****     #define CYALIGNED __attribute__ ((aligned))
ARM GAS  C:\Users\User\AppData\Local\Temp\ccGddIjf.s 			page 2


  33:Generated_Source\PSoC5/cyfitter_cfg.c ****     #define CY_CFG_UNUSED __attribute__ ((unused))
  34:Generated_Source\PSoC5/cyfitter_cfg.c ****     #ifndef CY_CFG_SECTION
  35:Generated_Source\PSoC5/cyfitter_cfg.c ****         #define CY_CFG_SECTION __attribute__ ((section(".psocinit")))
  36:Generated_Source\PSoC5/cyfitter_cfg.c ****     #endif
  37:Generated_Source\PSoC5/cyfitter_cfg.c ****     
  38:Generated_Source\PSoC5/cyfitter_cfg.c ****     #if defined(__ARMCC_VERSION)
  39:Generated_Source\PSoC5/cyfitter_cfg.c ****         #define CY_CFG_MEMORY_BARRIER() __memory_changed()
  40:Generated_Source\PSoC5/cyfitter_cfg.c ****     #else
  41:Generated_Source\PSoC5/cyfitter_cfg.c ****         #define CY_CFG_MEMORY_BARRIER() __sync_synchronize()
  42:Generated_Source\PSoC5/cyfitter_cfg.c ****     #endif
  43:Generated_Source\PSoC5/cyfitter_cfg.c ****     
  44:Generated_Source\PSoC5/cyfitter_cfg.c **** #elif defined(__ICCARM__)
  45:Generated_Source\PSoC5/cyfitter_cfg.c ****     #include <intrinsics.h>
  46:Generated_Source\PSoC5/cyfitter_cfg.c **** 
  47:Generated_Source\PSoC5/cyfitter_cfg.c ****     #define CYPACKED __packed
  48:Generated_Source\PSoC5/cyfitter_cfg.c ****     #define CYPACKED_ATTR 
  49:Generated_Source\PSoC5/cyfitter_cfg.c ****     #define CYALIGNED _Pragma("data_alignment=4")
  50:Generated_Source\PSoC5/cyfitter_cfg.c ****     #define CY_CFG_UNUSED _Pragma("diag_suppress=Pe177")
  51:Generated_Source\PSoC5/cyfitter_cfg.c ****     #define CY_CFG_SECTION _Pragma("location=\".psocinit\"")
  52:Generated_Source\PSoC5/cyfitter_cfg.c ****     
  53:Generated_Source\PSoC5/cyfitter_cfg.c ****     #define CY_CFG_MEMORY_BARRIER() __DMB()
  54:Generated_Source\PSoC5/cyfitter_cfg.c ****     
  55:Generated_Source\PSoC5/cyfitter_cfg.c **** #else
  56:Generated_Source\PSoC5/cyfitter_cfg.c ****     #error Unsupported toolchain
  57:Generated_Source\PSoC5/cyfitter_cfg.c **** #endif
  58:Generated_Source\PSoC5/cyfitter_cfg.c **** 
  59:Generated_Source\PSoC5/cyfitter_cfg.c **** 
  60:Generated_Source\PSoC5/cyfitter_cfg.c **** CY_CFG_UNUSED
  61:Generated_Source\PSoC5/cyfitter_cfg.c **** static void CYMEMZERO(void *s, size_t n);
  62:Generated_Source\PSoC5/cyfitter_cfg.c **** CY_CFG_UNUSED
  63:Generated_Source\PSoC5/cyfitter_cfg.c **** static void CYMEMZERO(void *s, size_t n)
  64:Generated_Source\PSoC5/cyfitter_cfg.c **** {
  26              		.loc 1 64 0
  27              		.cfi_startproc
  28              		@ args = 0, pretend = 0, frame = 8
  29              		@ frame_needed = 1, uses_anonymous_args = 0
  30 0000 80B5     		push	{r7, lr}
  31              		.cfi_def_cfa_offset 8
  32              		.cfi_offset 7, -8
  33              		.cfi_offset 14, -4
  34 0002 82B0     		sub	sp, sp, #8
  35              		.cfi_def_cfa_offset 16
  36 0004 00AF     		add	r7, sp, #0
  37              		.cfi_def_cfa_register 7
  38 0006 7860     		str	r0, [r7, #4]
  39 0008 3960     		str	r1, [r7]
  65:Generated_Source\PSoC5/cyfitter_cfg.c **** 	(void)memset(s, 0, n);
  40              		.loc 1 65 0
  41 000a 7868     		ldr	r0, [r7, #4]
  42 000c 0021     		movs	r1, #0
  43 000e 3A68     		ldr	r2, [r7]
  44 0010 FFF7FEFF 		bl	memset
  66:Generated_Source\PSoC5/cyfitter_cfg.c **** }
  45              		.loc 1 66 0
  46 0014 0837     		adds	r7, r7, #8
  47              		.cfi_def_cfa_offset 8
  48 0016 BD46     		mov	sp, r7
ARM GAS  C:\Users\User\AppData\Local\Temp\ccGddIjf.s 			page 3


  49              		.cfi_def_cfa_register 13
  50              		@ sp needed
  51 0018 80BD     		pop	{r7, pc}
  52              		.cfi_endproc
  53              	.LFE0:
  54              		.size	CYMEMZERO, .-CYMEMZERO
  55 001a 00BF     		.section	.text.CYCONFIGCPY,"ax",%progbits
  56              		.align	2
  57              		.thumb
  58              		.thumb_func
  59              		.type	CYCONFIGCPY, %function
  60              	CYCONFIGCPY:
  61              	.LFB1:
  67:Generated_Source\PSoC5/cyfitter_cfg.c **** CY_CFG_UNUSED
  68:Generated_Source\PSoC5/cyfitter_cfg.c **** static void CYCONFIGCPY(void *dest, const void *src, size_t n);
  69:Generated_Source\PSoC5/cyfitter_cfg.c **** CY_CFG_UNUSED
  70:Generated_Source\PSoC5/cyfitter_cfg.c **** static void CYCONFIGCPY(void *dest, const void *src, size_t n)
  71:Generated_Source\PSoC5/cyfitter_cfg.c **** {
  62              		.loc 1 71 0
  63              		.cfi_startproc
  64              		@ args = 0, pretend = 0, frame = 16
  65              		@ frame_needed = 1, uses_anonymous_args = 0
  66 0000 80B5     		push	{r7, lr}
  67              		.cfi_def_cfa_offset 8
  68              		.cfi_offset 7, -8
  69              		.cfi_offset 14, -4
  70 0002 84B0     		sub	sp, sp, #16
  71              		.cfi_def_cfa_offset 24
  72 0004 00AF     		add	r7, sp, #0
  73              		.cfi_def_cfa_register 7
  74 0006 F860     		str	r0, [r7, #12]
  75 0008 B960     		str	r1, [r7, #8]
  76 000a 7A60     		str	r2, [r7, #4]
  72:Generated_Source\PSoC5/cyfitter_cfg.c **** 	(void)memcpy(dest, src, n);
  77              		.loc 1 72 0
  78 000c F868     		ldr	r0, [r7, #12]
  79 000e B968     		ldr	r1, [r7, #8]
  80 0010 7A68     		ldr	r2, [r7, #4]
  81 0012 FFF7FEFF 		bl	memcpy
  73:Generated_Source\PSoC5/cyfitter_cfg.c **** }
  82              		.loc 1 73 0
  83 0016 1037     		adds	r7, r7, #16
  84              		.cfi_def_cfa_offset 8
  85 0018 BD46     		mov	sp, r7
  86              		.cfi_def_cfa_register 13
  87              		@ sp needed
  88 001a 80BD     		pop	{r7, pc}
  89              		.cfi_endproc
  90              	.LFE1:
  91              		.size	CYCONFIGCPY, .-CYCONFIGCPY
  92              		.section	.text.CYCONFIGCPYCODE,"ax",%progbits
  93              		.align	2
  94              		.thumb
  95              		.thumb_func
  96              		.type	CYCONFIGCPYCODE, %function
  97              	CYCONFIGCPYCODE:
  98              	.LFB2:
ARM GAS  C:\Users\User\AppData\Local\Temp\ccGddIjf.s 			page 4


  74:Generated_Source\PSoC5/cyfitter_cfg.c **** CY_CFG_UNUSED
  75:Generated_Source\PSoC5/cyfitter_cfg.c **** static void CYCONFIGCPYCODE(void *dest, const void *src, size_t n);
  76:Generated_Source\PSoC5/cyfitter_cfg.c **** CY_CFG_UNUSED
  77:Generated_Source\PSoC5/cyfitter_cfg.c **** static void CYCONFIGCPYCODE(void *dest, const void *src, size_t n)
  78:Generated_Source\PSoC5/cyfitter_cfg.c **** {
  99              		.loc 1 78 0
 100              		.cfi_startproc
 101              		@ args = 0, pretend = 0, frame = 16
 102              		@ frame_needed = 1, uses_anonymous_args = 0
 103 0000 80B5     		push	{r7, lr}
 104              		.cfi_def_cfa_offset 8
 105              		.cfi_offset 7, -8
 106              		.cfi_offset 14, -4
 107 0002 84B0     		sub	sp, sp, #16
 108              		.cfi_def_cfa_offset 24
 109 0004 00AF     		add	r7, sp, #0
 110              		.cfi_def_cfa_register 7
 111 0006 F860     		str	r0, [r7, #12]
 112 0008 B960     		str	r1, [r7, #8]
 113 000a 7A60     		str	r2, [r7, #4]
  79:Generated_Source\PSoC5/cyfitter_cfg.c **** 	(void)memcpy(dest, src, n);
 114              		.loc 1 79 0
 115 000c F868     		ldr	r0, [r7, #12]
 116 000e B968     		ldr	r1, [r7, #8]
 117 0010 7A68     		ldr	r2, [r7, #4]
 118 0012 FFF7FEFF 		bl	memcpy
  80:Generated_Source\PSoC5/cyfitter_cfg.c **** }
 119              		.loc 1 80 0
 120 0016 1037     		adds	r7, r7, #16
 121              		.cfi_def_cfa_offset 8
 122 0018 BD46     		mov	sp, r7
 123              		.cfi_def_cfa_register 13
 124              		@ sp needed
 125 001a 80BD     		pop	{r7, pc}
 126              		.cfi_endproc
 127              	.LFE2:
 128              		.size	CYCONFIGCPYCODE, .-CYCONFIGCPYCODE
 129              		.section	.text.CyClockStartupError,"ax",%progbits
 130              		.align	2
 131              		.thumb
 132              		.thumb_func
 133              		.type	CyClockStartupError, %function
 134              	CyClockStartupError:
 135              	.LFB3:
  81:Generated_Source\PSoC5/cyfitter_cfg.c **** 
  82:Generated_Source\PSoC5/cyfitter_cfg.c **** 
  83:Generated_Source\PSoC5/cyfitter_cfg.c **** 
  84:Generated_Source\PSoC5/cyfitter_cfg.c **** 
  85:Generated_Source\PSoC5/cyfitter_cfg.c **** /* Clock startup error codes                                                   */
  86:Generated_Source\PSoC5/cyfitter_cfg.c **** #define CYCLOCKSTART_NO_ERROR    0u
  87:Generated_Source\PSoC5/cyfitter_cfg.c **** #define CYCLOCKSTART_XTAL_ERROR  1u
  88:Generated_Source\PSoC5/cyfitter_cfg.c **** #define CYCLOCKSTART_32KHZ_ERROR 2u
  89:Generated_Source\PSoC5/cyfitter_cfg.c **** #define CYCLOCKSTART_PLL_ERROR   3u
  90:Generated_Source\PSoC5/cyfitter_cfg.c **** 
  91:Generated_Source\PSoC5/cyfitter_cfg.c **** 
  92:Generated_Source\PSoC5/cyfitter_cfg.c **** #ifdef CY_NEED_CYCLOCKSTARTUPERROR
  93:Generated_Source\PSoC5/cyfitter_cfg.c **** /*******************************************************************************
ARM GAS  C:\Users\User\AppData\Local\Temp\ccGddIjf.s 			page 5


  94:Generated_Source\PSoC5/cyfitter_cfg.c **** * Function Name: CyClockStartupError
  95:Generated_Source\PSoC5/cyfitter_cfg.c **** ********************************************************************************
  96:Generated_Source\PSoC5/cyfitter_cfg.c **** * Summary:
  97:Generated_Source\PSoC5/cyfitter_cfg.c **** *  If an error is encountered during clock configuration (crystal startup error,
  98:Generated_Source\PSoC5/cyfitter_cfg.c **** *  PLL lock error, etc.), the system will end up here.  Unless reimplemented by
  99:Generated_Source\PSoC5/cyfitter_cfg.c **** *  the customer, this function will stop in an infinite loop.
 100:Generated_Source\PSoC5/cyfitter_cfg.c **** *
 101:Generated_Source\PSoC5/cyfitter_cfg.c **** * Parameters:
 102:Generated_Source\PSoC5/cyfitter_cfg.c **** *   void
 103:Generated_Source\PSoC5/cyfitter_cfg.c **** *
 104:Generated_Source\PSoC5/cyfitter_cfg.c **** * Return:
 105:Generated_Source\PSoC5/cyfitter_cfg.c **** *   void
 106:Generated_Source\PSoC5/cyfitter_cfg.c **** *
 107:Generated_Source\PSoC5/cyfitter_cfg.c **** *******************************************************************************/
 108:Generated_Source\PSoC5/cyfitter_cfg.c **** CY_CFG_UNUSED
 109:Generated_Source\PSoC5/cyfitter_cfg.c **** static void CyClockStartupError(uint8 errorCode);
 110:Generated_Source\PSoC5/cyfitter_cfg.c **** CY_CFG_UNUSED
 111:Generated_Source\PSoC5/cyfitter_cfg.c **** static void CyClockStartupError(uint8 errorCode)
 112:Generated_Source\PSoC5/cyfitter_cfg.c **** {
 136              		.loc 1 112 0
 137              		.cfi_startproc
 138              		@ args = 0, pretend = 0, frame = 8
 139              		@ frame_needed = 1, uses_anonymous_args = 0
 140              		@ link register save eliminated.
 141 0000 80B4     		push	{r7}
 142              		.cfi_def_cfa_offset 4
 143              		.cfi_offset 7, -4
 144 0002 83B0     		sub	sp, sp, #12
 145              		.cfi_def_cfa_offset 16
 146 0004 00AF     		add	r7, sp, #0
 147              		.cfi_def_cfa_register 7
 148 0006 0346     		mov	r3, r0
 149 0008 FB71     		strb	r3, [r7, #7]
 150              	.L5:
 113:Generated_Source\PSoC5/cyfitter_cfg.c ****     /* To remove the compiler warning if errorCode not used.                */
 114:Generated_Source\PSoC5/cyfitter_cfg.c ****     errorCode = errorCode;
 115:Generated_Source\PSoC5/cyfitter_cfg.c **** 
 116:Generated_Source\PSoC5/cyfitter_cfg.c ****     /* If we have a clock startup error (bad MHz crystal, PLL lock, etc.),  */
 117:Generated_Source\PSoC5/cyfitter_cfg.c ****     /* we will end up here to allow the customer to implement something to  */
 118:Generated_Source\PSoC5/cyfitter_cfg.c ****     /* deal with the clock condition.                                       */
 119:Generated_Source\PSoC5/cyfitter_cfg.c **** 
 120:Generated_Source\PSoC5/cyfitter_cfg.c **** #ifdef CY_CFG_CLOCK_STARTUP_ERROR_CALLBACK
 121:Generated_Source\PSoC5/cyfitter_cfg.c **** 	CY_CFG_Clock_Startup_ErrorCallback();
 122:Generated_Source\PSoC5/cyfitter_cfg.c **** #else
 123:Generated_Source\PSoC5/cyfitter_cfg.c **** 	/*  If not using CY_CFG_CLOCK_STARTUP_ERROR_CALLBACK, place your clock startup code here. */
 124:Generated_Source\PSoC5/cyfitter_cfg.c ****     /* `#START CyClockStartupError` */
 125:Generated_Source\PSoC5/cyfitter_cfg.c **** 
 126:Generated_Source\PSoC5/cyfitter_cfg.c **** 
 127:Generated_Source\PSoC5/cyfitter_cfg.c **** 
 128:Generated_Source\PSoC5/cyfitter_cfg.c ****     /* `#END` */
 129:Generated_Source\PSoC5/cyfitter_cfg.c **** 
 130:Generated_Source\PSoC5/cyfitter_cfg.c ****     /* If nothing else, stop here since the clocks have not started         */
 131:Generated_Source\PSoC5/cyfitter_cfg.c ****     /* correctly.                                                           */
 132:Generated_Source\PSoC5/cyfitter_cfg.c ****     while(1) {}
 151              		.loc 1 132 0 discriminator 1
 152 000a FEE7     		b	.L5
 153              		.cfi_endproc
ARM GAS  C:\Users\User\AppData\Local\Temp\ccGddIjf.s 			page 6


 154              	.LFE3:
 155              		.size	CyClockStartupError, .-CyClockStartupError
 156              		.section	.text.ClockSetup,"ax",%progbits
 157              		.align	2
 158              		.thumb
 159              		.thumb_func
 160              		.type	ClockSetup, %function
 161              	ClockSetup:
 162              	.LFB4:
 133:Generated_Source\PSoC5/cyfitter_cfg.c **** #endif /* CY_CFG_CLOCK_STARTUP_ERROR_CALLBACK */ 
 134:Generated_Source\PSoC5/cyfitter_cfg.c **** }
 135:Generated_Source\PSoC5/cyfitter_cfg.c **** #endif
 136:Generated_Source\PSoC5/cyfitter_cfg.c **** 
 137:Generated_Source\PSoC5/cyfitter_cfg.c **** /* IOPINS0_1 Address: CYREG_PRT1_DM0 Size (bytes): 8 */
 138:Generated_Source\PSoC5/cyfitter_cfg.c **** #define BS_IOPINS0_1_VAL ((const uint8 CYFAR *)0x48000000u)
 139:Generated_Source\PSoC5/cyfitter_cfg.c **** 
 140:Generated_Source\PSoC5/cyfitter_cfg.c **** 
 141:Generated_Source\PSoC5/cyfitter_cfg.c **** /*******************************************************************************
 142:Generated_Source\PSoC5/cyfitter_cfg.c **** * Function Name: ClockSetup
 143:Generated_Source\PSoC5/cyfitter_cfg.c **** ********************************************************************************
 144:Generated_Source\PSoC5/cyfitter_cfg.c **** *
 145:Generated_Source\PSoC5/cyfitter_cfg.c **** * Summary:
 146:Generated_Source\PSoC5/cyfitter_cfg.c **** *  Performs the initialization of all of the clocks in the device based on the
 147:Generated_Source\PSoC5/cyfitter_cfg.c **** *  settings in the Clock tab of the DWR.  This includes enabling the requested
 148:Generated_Source\PSoC5/cyfitter_cfg.c **** *  clocks and setting the necessary dividers to produce the desired frequency. 
 149:Generated_Source\PSoC5/cyfitter_cfg.c **** *
 150:Generated_Source\PSoC5/cyfitter_cfg.c **** * Parameters:
 151:Generated_Source\PSoC5/cyfitter_cfg.c **** *  void
 152:Generated_Source\PSoC5/cyfitter_cfg.c **** *
 153:Generated_Source\PSoC5/cyfitter_cfg.c **** * Return:
 154:Generated_Source\PSoC5/cyfitter_cfg.c **** *  void
 155:Generated_Source\PSoC5/cyfitter_cfg.c **** *
 156:Generated_Source\PSoC5/cyfitter_cfg.c **** *******************************************************************************/
 157:Generated_Source\PSoC5/cyfitter_cfg.c **** static void ClockSetup(void);
 158:Generated_Source\PSoC5/cyfitter_cfg.c **** static void ClockSetup(void)
 159:Generated_Source\PSoC5/cyfitter_cfg.c **** {
 163              		.loc 1 159 0
 164              		.cfi_startproc
 165              		@ args = 0, pretend = 0, frame = 8
 166              		@ frame_needed = 1, uses_anonymous_args = 0
 167 0000 80B5     		push	{r7, lr}
 168              		.cfi_def_cfa_offset 8
 169              		.cfi_offset 7, -8
 170              		.cfi_offset 14, -4
 171 0002 82B0     		sub	sp, sp, #8
 172              		.cfi_def_cfa_offset 16
 173 0004 00AF     		add	r7, sp, #0
 174              		.cfi_def_cfa_register 7
 160:Generated_Source\PSoC5/cyfitter_cfg.c **** 	uint32 timeout;
 161:Generated_Source\PSoC5/cyfitter_cfg.c **** 	uint8 pllLock;
 162:Generated_Source\PSoC5/cyfitter_cfg.c **** 
 163:Generated_Source\PSoC5/cyfitter_cfg.c **** 
 164:Generated_Source\PSoC5/cyfitter_cfg.c **** 	/* Configure ILO based on settings from Clock DWR */
 165:Generated_Source\PSoC5/cyfitter_cfg.c **** 	CY_SET_XTND_REG8((void CYFAR *)(CYREG_SLOWCLK_ILO_CR0), 0x02u);
 175              		.loc 1 165 0
 176 0006 294B     		ldr	r3, .L11
 177 0008 0222     		movs	r2, #2
ARM GAS  C:\Users\User\AppData\Local\Temp\ccGddIjf.s 			page 7


 178 000a 1A70     		strb	r2, [r3]
 166:Generated_Source\PSoC5/cyfitter_cfg.c **** 	CY_SET_XTND_REG8((void CYFAR *)(CYREG_CLKDIST_CR), 0x08u);
 179              		.loc 1 166 0
 180 000c 4FF04023 		mov	r3, #1073758208
 181 0010 0822     		movs	r2, #8
 182 0012 1A70     		strb	r2, [r3]
 167:Generated_Source\PSoC5/cyfitter_cfg.c **** 
 168:Generated_Source\PSoC5/cyfitter_cfg.c **** 	/* Configure IMO based on settings from Clock DWR */
 169:Generated_Source\PSoC5/cyfitter_cfg.c **** 	CY_SET_XTND_REG8((void CYFAR *)(CYREG_FASTCLK_IMO_CR), 0x03u);
 183              		.loc 1 169 0
 184 0014 264B     		ldr	r3, .L11+4
 185 0016 0322     		movs	r2, #3
 186 0018 1A70     		strb	r2, [r3]
 170:Generated_Source\PSoC5/cyfitter_cfg.c **** 	CY_SET_XTND_REG8((void CYFAR *)(CYREG_IMO_TR1), (CY_GET_XTND_REG8((void CYFAR *)CYREG_FLSHID_CUST_
 187              		.loc 1 170 0
 188 001a 264B     		ldr	r3, .L11+8
 189 001c 264A     		ldr	r2, .L11+12
 190 001e 1278     		ldrb	r2, [r2]
 191 0020 D2B2     		uxtb	r2, r2
 192 0022 1A70     		strb	r2, [r3]
 171:Generated_Source\PSoC5/cyfitter_cfg.c **** 
 172:Generated_Source\PSoC5/cyfitter_cfg.c **** 	/* Configure PLL based on settings from Clock DWR */
 173:Generated_Source\PSoC5/cyfitter_cfg.c **** 	CY_SET_XTND_REG16((void CYFAR *)(CYREG_FASTCLK_PLL_P), 0x0008u);
 193              		.loc 1 173 0
 194 0024 254B     		ldr	r3, .L11+16
 195 0026 0822     		movs	r2, #8
 196 0028 1A80     		strh	r2, [r3]	@ movhi
 174:Generated_Source\PSoC5/cyfitter_cfg.c **** 	CY_SET_XTND_REG16((void CYFAR *)(CYREG_FASTCLK_PLL_CFG0), 0x1251u);
 197              		.loc 1 174 0
 198 002a 254B     		ldr	r3, .L11+20
 199 002c 41F25122 		movw	r2, #4689
 200 0030 1A80     		strh	r2, [r3]	@ movhi
 175:Generated_Source\PSoC5/cyfitter_cfg.c **** 	/* Wait up to 250us for the PLL to lock */
 176:Generated_Source\PSoC5/cyfitter_cfg.c **** 	pllLock = 0u;
 201              		.loc 1 176 0
 202 0032 0023     		movs	r3, #0
 203 0034 FB70     		strb	r3, [r7, #3]
 177:Generated_Source\PSoC5/cyfitter_cfg.c **** 	for (timeout = 250u / 10u; (timeout > 0u) && (pllLock != 0x03u); timeout--)
 204              		.loc 1 177 0
 205 0036 1923     		movs	r3, #25
 206 0038 7B60     		str	r3, [r7, #4]
 207 003a 14E0     		b	.L7
 208              	.L9:
 178:Generated_Source\PSoC5/cyfitter_cfg.c **** 	{ 
 179:Generated_Source\PSoC5/cyfitter_cfg.c **** 		pllLock = 0x03u & ((uint8)((uint8)pllLock << 1) | ((CY_GET_XTND_REG8((void CYFAR *)CYREG_FASTCLK_
 209              		.loc 1 179 0 discriminator 4
 210 003c FB78     		ldrb	r3, [r7, #3]
 211 003e 5B00     		lsls	r3, r3, #1
 212 0040 DAB2     		uxtb	r2, r3
 213 0042 204B     		ldr	r3, .L11+24
 214 0044 1B78     		ldrb	r3, [r3]
 215 0046 DBB2     		uxtb	r3, r3
 216 0048 03F00103 		and	r3, r3, #1
 217 004c DBB2     		uxtb	r3, r3
 218 004e 1343     		orrs	r3, r3, r2
 219 0050 DBB2     		uxtb	r3, r3
 220 0052 03F00303 		and	r3, r3, #3
ARM GAS  C:\Users\User\AppData\Local\Temp\ccGddIjf.s 			page 8


 221 0056 FB70     		strb	r3, [r7, #3]
 180:Generated_Source\PSoC5/cyfitter_cfg.c **** 		CyDelayCycles(10u * 48u); /* Delay 10us based on 48MHz clock */
 222              		.loc 1 180 0 discriminator 4
 223 0058 4FF4F070 		mov	r0, #480
 224 005c FFF7FEFF 		bl	CyDelayCycles
 177:Generated_Source\PSoC5/cyfitter_cfg.c **** 	for (timeout = 250u / 10u; (timeout > 0u) && (pllLock != 0x03u); timeout--)
 225              		.loc 1 177 0 discriminator 4
 226 0060 7B68     		ldr	r3, [r7, #4]
 227 0062 013B     		subs	r3, r3, #1
 228 0064 7B60     		str	r3, [r7, #4]
 229              	.L7:
 177:Generated_Source\PSoC5/cyfitter_cfg.c **** 	for (timeout = 250u / 10u; (timeout > 0u) && (pllLock != 0x03u); timeout--)
 230              		.loc 1 177 0 is_stmt 0 discriminator 1
 231 0066 7B68     		ldr	r3, [r7, #4]
 232 0068 002B     		cmp	r3, #0
 233 006a 02D0     		beq	.L8
 177:Generated_Source\PSoC5/cyfitter_cfg.c **** 	for (timeout = 250u / 10u; (timeout > 0u) && (pllLock != 0x03u); timeout--)
 234              		.loc 1 177 0 discriminator 3
 235 006c FB78     		ldrb	r3, [r7, #3]	@ zero_extendqisi2
 236 006e 032B     		cmp	r3, #3
 237 0070 E4D1     		bne	.L9
 238              	.L8:
 181:Generated_Source\PSoC5/cyfitter_cfg.c **** 	}
 182:Generated_Source\PSoC5/cyfitter_cfg.c **** 	/* If we ran out of time the PLL didn't lock so go to the error function */
 183:Generated_Source\PSoC5/cyfitter_cfg.c **** 	if (timeout == 0u)
 239              		.loc 1 183 0 is_stmt 1
 240 0072 7B68     		ldr	r3, [r7, #4]
 241 0074 002B     		cmp	r3, #0
 242 0076 02D1     		bne	.L10
 184:Generated_Source\PSoC5/cyfitter_cfg.c **** 	{
 185:Generated_Source\PSoC5/cyfitter_cfg.c **** 		CyClockStartupError(CYCLOCKSTART_PLL_ERROR);
 243              		.loc 1 185 0
 244 0078 0320     		movs	r0, #3
 245 007a FFF7FEFF 		bl	CyClockStartupError
 246              	.L10:
 186:Generated_Source\PSoC5/cyfitter_cfg.c **** 	}
 187:Generated_Source\PSoC5/cyfitter_cfg.c **** 
 188:Generated_Source\PSoC5/cyfitter_cfg.c **** 	/* Configure Bus/Master Clock based on settings from Clock DWR */
 189:Generated_Source\PSoC5/cyfitter_cfg.c **** 	CY_SET_XTND_REG16((void CYFAR *)(CYREG_CLKDIST_MSTR0), 0x0100u);
 247              		.loc 1 189 0
 248 007e 124B     		ldr	r3, .L11+28
 249 0080 4FF48072 		mov	r2, #256
 250 0084 1A80     		strh	r2, [r3]	@ movhi
 190:Generated_Source\PSoC5/cyfitter_cfg.c **** 	CY_SET_XTND_REG8((void CYFAR *)(CYREG_CLKDIST_MSTR0), 0x07u);
 251              		.loc 1 190 0
 252 0086 104B     		ldr	r3, .L11+28
 253 0088 0722     		movs	r2, #7
 254 008a 1A70     		strb	r2, [r3]
 191:Generated_Source\PSoC5/cyfitter_cfg.c **** 	CY_SET_XTND_REG8((void CYFAR *)(CYREG_CLKDIST_BCFG0), 0x00u);
 255              		.loc 1 191 0
 256 008c 0F4B     		ldr	r3, .L11+32
 257 008e 0022     		movs	r2, #0
 258 0090 1A70     		strb	r2, [r3]
 192:Generated_Source\PSoC5/cyfitter_cfg.c **** 	CY_SET_XTND_REG8((void CYFAR *)(CYREG_CLKDIST_BCFG2), 0x48u);
 259              		.loc 1 192 0
 260 0092 0F4B     		ldr	r3, .L11+36
 261 0094 4822     		movs	r2, #72
ARM GAS  C:\Users\User\AppData\Local\Temp\ccGddIjf.s 			page 9


 262 0096 1A70     		strb	r2, [r3]
 193:Generated_Source\PSoC5/cyfitter_cfg.c **** 	CY_SET_XTND_REG8((void CYFAR *)(CYREG_CLKDIST_MSTR0), 0x00u);
 263              		.loc 1 193 0
 264 0098 0B4B     		ldr	r3, .L11+28
 265 009a 0022     		movs	r2, #0
 266 009c 1A70     		strb	r2, [r3]
 194:Generated_Source\PSoC5/cyfitter_cfg.c **** 	CY_SET_XTND_REG8((void CYFAR *)(CYREG_CLKDIST_LD), 0x02u);
 267              		.loc 1 194 0
 268 009e 0D4B     		ldr	r3, .L11+40
 269 00a0 0222     		movs	r2, #2
 270 00a2 1A70     		strb	r2, [r3]
 195:Generated_Source\PSoC5/cyfitter_cfg.c **** }
 271              		.loc 1 195 0
 272 00a4 0837     		adds	r7, r7, #8
 273              		.cfi_def_cfa_offset 8
 274 00a6 BD46     		mov	sp, r7
 275              		.cfi_def_cfa_register 13
 276              		@ sp needed
 277 00a8 80BD     		pop	{r7, pc}
 278              	.L12:
 279 00aa 00BF     		.align	2
 280              	.L11:
 281 00ac 00430040 		.word	1073758976
 282 00b0 00420040 		.word	1073758720
 283 00b4 A1460040 		.word	1073759905
 284 00b8 08010049 		.word	1224737032
 285 00bc 22420040 		.word	1073758754
 286 00c0 20420040 		.word	1073758752
 287 00c4 25420040 		.word	1073758757
 288 00c8 04400040 		.word	1073758212
 289 00cc 06400040 		.word	1073758214
 290 00d0 08400040 		.word	1073758216
 291 00d4 01400040 		.word	1073758209
 292              		.cfi_endproc
 293              	.LFE4:
 294              		.size	ClockSetup, .-ClockSetup
 295              		.section	.text.AnalogSetDefault,"ax",%progbits
 296              		.align	2
 297              		.thumb
 298              		.thumb_func
 299              		.type	AnalogSetDefault, %function
 300              	AnalogSetDefault:
 301              	.LFB5:
 196:Generated_Source\PSoC5/cyfitter_cfg.c **** 
 197:Generated_Source\PSoC5/cyfitter_cfg.c **** 
 198:Generated_Source\PSoC5/cyfitter_cfg.c **** /* Analog API Functions */
 199:Generated_Source\PSoC5/cyfitter_cfg.c **** 
 200:Generated_Source\PSoC5/cyfitter_cfg.c **** 
 201:Generated_Source\PSoC5/cyfitter_cfg.c **** /*******************************************************************************
 202:Generated_Source\PSoC5/cyfitter_cfg.c **** * Function Name: AnalogSetDefault
 203:Generated_Source\PSoC5/cyfitter_cfg.c **** ********************************************************************************
 204:Generated_Source\PSoC5/cyfitter_cfg.c **** *
 205:Generated_Source\PSoC5/cyfitter_cfg.c **** * Summary:
 206:Generated_Source\PSoC5/cyfitter_cfg.c **** *  Sets up the analog portions of the chip to default values based on chip
 207:Generated_Source\PSoC5/cyfitter_cfg.c **** *  configuration options from the project.
 208:Generated_Source\PSoC5/cyfitter_cfg.c **** *
 209:Generated_Source\PSoC5/cyfitter_cfg.c **** * Parameters:
ARM GAS  C:\Users\User\AppData\Local\Temp\ccGddIjf.s 			page 10


 210:Generated_Source\PSoC5/cyfitter_cfg.c **** *  void
 211:Generated_Source\PSoC5/cyfitter_cfg.c **** *
 212:Generated_Source\PSoC5/cyfitter_cfg.c **** * Return:
 213:Generated_Source\PSoC5/cyfitter_cfg.c **** *  void
 214:Generated_Source\PSoC5/cyfitter_cfg.c **** *
 215:Generated_Source\PSoC5/cyfitter_cfg.c **** *******************************************************************************/
 216:Generated_Source\PSoC5/cyfitter_cfg.c **** static void AnalogSetDefault(void);
 217:Generated_Source\PSoC5/cyfitter_cfg.c **** static void AnalogSetDefault(void)
 218:Generated_Source\PSoC5/cyfitter_cfg.c **** {
 302              		.loc 1 218 0
 303              		.cfi_startproc
 304              		@ args = 0, pretend = 0, frame = 8
 305              		@ frame_needed = 1, uses_anonymous_args = 0
 306              		@ link register save eliminated.
 307 0000 80B4     		push	{r7}
 308              		.cfi_def_cfa_offset 4
 309              		.cfi_offset 7, -4
 310 0002 83B0     		sub	sp, sp, #12
 311              		.cfi_def_cfa_offset 16
 312 0004 00AF     		add	r7, sp, #0
 313              		.cfi_def_cfa_register 7
 219:Generated_Source\PSoC5/cyfitter_cfg.c **** 	uint8 bg_xover_inl_trim = CY_GET_XTND_REG8((void CYFAR *)(CYREG_FLSHID_MFG_CFG_BG_XOVER_INL_TRIM +
 314              		.loc 1 219 0
 315 0006 0B4B     		ldr	r3, .L14
 316 0008 1B78     		ldrb	r3, [r3]
 317 000a FB71     		strb	r3, [r7, #7]
 220:Generated_Source\PSoC5/cyfitter_cfg.c **** 	CY_SET_XTND_REG8((void CYFAR *)(CYREG_BG_DFT0), (bg_xover_inl_trim & 0x07u));
 318              		.loc 1 220 0
 319 000c 0A4A     		ldr	r2, .L14+4
 320 000e FB79     		ldrb	r3, [r7, #7]
 321 0010 03F00703 		and	r3, r3, #7
 322 0014 DBB2     		uxtb	r3, r3
 323 0016 1370     		strb	r3, [r2]
 221:Generated_Source\PSoC5/cyfitter_cfg.c **** 	CY_SET_XTND_REG8((void CYFAR *)(CYREG_BG_DFT1), ((bg_xover_inl_trim >> 4) & 0x0Fu));
 324              		.loc 1 221 0
 325 0018 084A     		ldr	r2, .L14+8
 326 001a FB79     		ldrb	r3, [r7, #7]	@ zero_extendqisi2
 327 001c 1B09     		lsrs	r3, r3, #4
 328 001e DBB2     		uxtb	r3, r3
 329 0020 1370     		strb	r3, [r2]
 222:Generated_Source\PSoC5/cyfitter_cfg.c **** 	CY_SET_XTND_REG8((void CYFAR *)CYREG_PUMP_CR0, 0x44u);
 330              		.loc 1 222 0
 331 0022 074B     		ldr	r3, .L14+12
 332 0024 4422     		movs	r2, #68
 333 0026 1A70     		strb	r2, [r3]
 223:Generated_Source\PSoC5/cyfitter_cfg.c **** }
 334              		.loc 1 223 0
 335 0028 0C37     		adds	r7, r7, #12
 336              		.cfi_def_cfa_offset 4
 337 002a BD46     		mov	sp, r7
 338              		.cfi_def_cfa_register 13
 339              		@ sp needed
 340 002c 5DF8047B 		ldr	r7, [sp], #4
 341              		.cfi_restore 7
 342              		.cfi_def_cfa_offset 0
 343 0030 7047     		bx	lr
 344              	.L15:
ARM GAS  C:\Users\User\AppData\Local\Temp\ccGddIjf.s 			page 11


 345 0032 00BF     		.align	2
 346              	.L14:
 347 0034 CF010049 		.word	1224737231
 348 0038 6E580040 		.word	1073764462
 349 003c 6F580040 		.word	1073764463
 350 0040 76580040 		.word	1073764470
 351              		.cfi_endproc
 352              	.LFE5:
 353              		.size	AnalogSetDefault, .-AnalogSetDefault
 354              		.section	.text.SetAnalogRoutingPumps,"ax",%progbits
 355              		.align	2
 356              		.global	SetAnalogRoutingPumps
 357              		.thumb
 358              		.thumb_func
 359              		.type	SetAnalogRoutingPumps, %function
 360              	SetAnalogRoutingPumps:
 361              	.LFB6:
 224:Generated_Source\PSoC5/cyfitter_cfg.c **** 
 225:Generated_Source\PSoC5/cyfitter_cfg.c **** 
 226:Generated_Source\PSoC5/cyfitter_cfg.c **** /*******************************************************************************
 227:Generated_Source\PSoC5/cyfitter_cfg.c **** * Function Name: SetAnalogRoutingPumps
 228:Generated_Source\PSoC5/cyfitter_cfg.c **** ********************************************************************************
 229:Generated_Source\PSoC5/cyfitter_cfg.c **** *
 230:Generated_Source\PSoC5/cyfitter_cfg.c **** * Summary:
 231:Generated_Source\PSoC5/cyfitter_cfg.c **** * Enables or disables the analog pumps feeding analog routing switches.
 232:Generated_Source\PSoC5/cyfitter_cfg.c **** * Intended to be called at startup, based on the Vdda system configuration;
 233:Generated_Source\PSoC5/cyfitter_cfg.c **** * may be called during operation when the user informs us that the Vdda voltage
 234:Generated_Source\PSoC5/cyfitter_cfg.c **** * crossed the pump threshold.
 235:Generated_Source\PSoC5/cyfitter_cfg.c **** *
 236:Generated_Source\PSoC5/cyfitter_cfg.c **** * Parameters:
 237:Generated_Source\PSoC5/cyfitter_cfg.c **** *  enabled - 1 to enable the pumps, 0 to disable the pumps
 238:Generated_Source\PSoC5/cyfitter_cfg.c **** *
 239:Generated_Source\PSoC5/cyfitter_cfg.c **** * Return:
 240:Generated_Source\PSoC5/cyfitter_cfg.c **** *  void
 241:Generated_Source\PSoC5/cyfitter_cfg.c **** *
 242:Generated_Source\PSoC5/cyfitter_cfg.c **** *******************************************************************************/
 243:Generated_Source\PSoC5/cyfitter_cfg.c **** void SetAnalogRoutingPumps(uint8 enabled)
 244:Generated_Source\PSoC5/cyfitter_cfg.c **** {
 362              		.loc 1 244 0
 363              		.cfi_startproc
 364              		@ args = 0, pretend = 0, frame = 16
 365              		@ frame_needed = 1, uses_anonymous_args = 0
 366              		@ link register save eliminated.
 367 0000 80B4     		push	{r7}
 368              		.cfi_def_cfa_offset 4
 369              		.cfi_offset 7, -4
 370 0002 85B0     		sub	sp, sp, #20
 371              		.cfi_def_cfa_offset 24
 372 0004 00AF     		add	r7, sp, #0
 373              		.cfi_def_cfa_register 7
 374 0006 0346     		mov	r3, r0
 375 0008 FB71     		strb	r3, [r7, #7]
 245:Generated_Source\PSoC5/cyfitter_cfg.c **** 	uint8 regValue = CY_GET_XTND_REG8((void CYFAR *)CYREG_PUMP_CR0);
 376              		.loc 1 245 0
 377 000a 064B     		ldr	r3, .L19
 378 000c 1B78     		ldrb	r3, [r3]
 379 000e FB73     		strb	r3, [r7, #15]
ARM GAS  C:\Users\User\AppData\Local\Temp\ccGddIjf.s 			page 12


 246:Generated_Source\PSoC5/cyfitter_cfg.c **** 	if (enabled != 0u)
 380              		.loc 1 246 0
 381 0010 FB79     		ldrb	r3, [r7, #7]	@ zero_extendqisi2
 382 0012 002B     		cmp	r3, #0
 247:Generated_Source\PSoC5/cyfitter_cfg.c **** 	{
 248:Generated_Source\PSoC5/cyfitter_cfg.c **** 		regValue |= 0x00u;
 249:Generated_Source\PSoC5/cyfitter_cfg.c **** 	}
 250:Generated_Source\PSoC5/cyfitter_cfg.c **** 	else
 251:Generated_Source\PSoC5/cyfitter_cfg.c **** 	{
 252:Generated_Source\PSoC5/cyfitter_cfg.c **** 		regValue &= (uint8)~0x00u;
 253:Generated_Source\PSoC5/cyfitter_cfg.c **** 	}
 254:Generated_Source\PSoC5/cyfitter_cfg.c **** 	CY_SET_XTND_REG8((void CYFAR *)CYREG_PUMP_CR0, regValue);
 383              		.loc 1 254 0
 384 0014 034A     		ldr	r2, .L19
 385 0016 FB7B     		ldrb	r3, [r7, #15]
 386 0018 1370     		strb	r3, [r2]
 255:Generated_Source\PSoC5/cyfitter_cfg.c **** }
 387              		.loc 1 255 0
 388 001a 1437     		adds	r7, r7, #20
 389              		.cfi_def_cfa_offset 4
 390 001c BD46     		mov	sp, r7
 391              		.cfi_def_cfa_register 13
 392              		@ sp needed
 393 001e 5DF8047B 		ldr	r7, [sp], #4
 394              		.cfi_restore 7
 395              		.cfi_def_cfa_offset 0
 396 0022 7047     		bx	lr
 397              	.L20:
 398              		.align	2
 399              	.L19:
 400 0024 76580040 		.word	1073764470
 401              		.cfi_endproc
 402              	.LFE6:
 403              		.size	SetAnalogRoutingPumps, .-SetAnalogRoutingPumps
 404              		.section	.text.cyfitter_cfg,"ax",%progbits
 405              		.align	2
 406              		.global	cyfitter_cfg
 407              		.thumb
 408              		.thumb_func
 409              		.type	cyfitter_cfg, %function
 410              	cyfitter_cfg:
 411              	.LFB7:
 256:Generated_Source\PSoC5/cyfitter_cfg.c **** 
 257:Generated_Source\PSoC5/cyfitter_cfg.c **** #define CY_AMUX_UNUSED CYREG_BOOST_SR
 258:Generated_Source\PSoC5/cyfitter_cfg.c **** 
 259:Generated_Source\PSoC5/cyfitter_cfg.c **** 
 260:Generated_Source\PSoC5/cyfitter_cfg.c **** /*******************************************************************************
 261:Generated_Source\PSoC5/cyfitter_cfg.c **** * Function Name: cyfitter_cfg
 262:Generated_Source\PSoC5/cyfitter_cfg.c **** ********************************************************************************
 263:Generated_Source\PSoC5/cyfitter_cfg.c **** * Summary:
 264:Generated_Source\PSoC5/cyfitter_cfg.c **** *  This function is called by the start-up code for the selected device. It
 265:Generated_Source\PSoC5/cyfitter_cfg.c **** *  performs all of the necessary device configuration based on the design
 266:Generated_Source\PSoC5/cyfitter_cfg.c **** *  settings.  This includes settings from the Design Wide Resources (DWR) such
 267:Generated_Source\PSoC5/cyfitter_cfg.c **** *  as Clocks and Pins as well as any component configuration that is necessary.
 268:Generated_Source\PSoC5/cyfitter_cfg.c **** *
 269:Generated_Source\PSoC5/cyfitter_cfg.c **** * Parameters:  
 270:Generated_Source\PSoC5/cyfitter_cfg.c **** *   void
ARM GAS  C:\Users\User\AppData\Local\Temp\ccGddIjf.s 			page 13


 271:Generated_Source\PSoC5/cyfitter_cfg.c **** *
 272:Generated_Source\PSoC5/cyfitter_cfg.c **** * Return:
 273:Generated_Source\PSoC5/cyfitter_cfg.c **** *   void
 274:Generated_Source\PSoC5/cyfitter_cfg.c **** *
 275:Generated_Source\PSoC5/cyfitter_cfg.c **** *******************************************************************************/
 276:Generated_Source\PSoC5/cyfitter_cfg.c **** 
 277:Generated_Source\PSoC5/cyfitter_cfg.c **** void cyfitter_cfg(void)
 278:Generated_Source\PSoC5/cyfitter_cfg.c **** {
 412              		.loc 1 278 0
 413              		.cfi_startproc
 414              		@ args = 0, pretend = 0, frame = 8
 415              		@ frame_needed = 1, uses_anonymous_args = 0
 416 0000 80B5     		push	{r7, lr}
 417              		.cfi_def_cfa_offset 8
 418              		.cfi_offset 7, -8
 419              		.cfi_offset 14, -4
 420 0002 82B0     		sub	sp, sp, #8
 421              		.cfi_def_cfa_offset 16
 422 0004 00AF     		add	r7, sp, #0
 423              		.cfi_def_cfa_register 7
 279:Generated_Source\PSoC5/cyfitter_cfg.c **** #ifdef CYGlobalIntDisable
 280:Generated_Source\PSoC5/cyfitter_cfg.c **** 	/* Disable interrupts by default. Let user enable if/when they want. */
 281:Generated_Source\PSoC5/cyfitter_cfg.c **** 	CYGlobalIntDisable
 424              		.loc 1 281 0
 425              	@ 281 "Generated_Source\PSoC5\cyfitter_cfg.c" 1
 426 0006 72B6     		CPSID   i
 427              	@ 0 "" 2
 282:Generated_Source\PSoC5/cyfitter_cfg.c **** #endif
 283:Generated_Source\PSoC5/cyfitter_cfg.c **** 
 284:Generated_Source\PSoC5/cyfitter_cfg.c **** 	/* Enable/Disable Debug functionality based on settings from System DWR */
 285:Generated_Source\PSoC5/cyfitter_cfg.c **** 	CY_SET_XTND_REG8((void CYFAR *)CYREG_MLOGIC_DEBUG, (CY_GET_XTND_REG8((void CYFAR *)CYREG_MLOGIC_DE
 428              		.loc 1 285 0
 429              		.thumb
 430 0008 324A     		ldr	r2, .L24
 431 000a 324B     		ldr	r3, .L24
 432 000c 1B78     		ldrb	r3, [r3]
 433 000e DBB2     		uxtb	r3, r3
 434 0010 43F00403 		orr	r3, r3, #4
 435 0014 DBB2     		uxtb	r3, r3
 436 0016 1370     		strb	r3, [r2]
 437              	.LBB2:
 286:Generated_Source\PSoC5/cyfitter_cfg.c **** 
 287:Generated_Source\PSoC5/cyfitter_cfg.c **** 	{
 288:Generated_Source\PSoC5/cyfitter_cfg.c **** 
 289:Generated_Source\PSoC5/cyfitter_cfg.c **** 		CYPACKED typedef struct {
 290:Generated_Source\PSoC5/cyfitter_cfg.c **** 			void CYFAR *address;
 291:Generated_Source\PSoC5/cyfitter_cfg.c **** 			uint16 size;
 292:Generated_Source\PSoC5/cyfitter_cfg.c **** 		} CYPACKED_ATTR cfg_memset_t;
 293:Generated_Source\PSoC5/cyfitter_cfg.c **** 
 294:Generated_Source\PSoC5/cyfitter_cfg.c **** 		static const cfg_memset_t CYCODE cfg_memset_list [] = {
 295:Generated_Source\PSoC5/cyfitter_cfg.c **** 			/* address, size */
 296:Generated_Source\PSoC5/cyfitter_cfg.c **** 			{(void CYFAR *)(CYREG_PRT0_DR), 16u},
 297:Generated_Source\PSoC5/cyfitter_cfg.c **** 			{(void CYFAR *)(CYREG_PRT2_DR), 80u},
 298:Generated_Source\PSoC5/cyfitter_cfg.c **** 			{(void CYFAR *)(CYREG_PRT12_DR), 16u},
 299:Generated_Source\PSoC5/cyfitter_cfg.c **** 			{(void CYFAR *)(CYREG_PRT15_DR), 16u},
 300:Generated_Source\PSoC5/cyfitter_cfg.c **** 			{(void CYFAR *)(CYDEV_UCFG_B0_P0_U0_BASE), 4096u},
 301:Generated_Source\PSoC5/cyfitter_cfg.c **** 			{(void CYFAR *)(CYDEV_UCFG_B1_P2_U0_BASE), 2048u},
ARM GAS  C:\Users\User\AppData\Local\Temp\ccGddIjf.s 			page 14


 302:Generated_Source\PSoC5/cyfitter_cfg.c **** 			{(void CYFAR *)(CYDEV_UCFG_DSI0_BASE), 2560u},
 303:Generated_Source\PSoC5/cyfitter_cfg.c **** 			{(void CYFAR *)(CYDEV_UCFG_DSI12_BASE), 512u},
 304:Generated_Source\PSoC5/cyfitter_cfg.c **** 			{(void CYFAR *)(CYREG_BCTL0_MDCLK_EN), 32u},
 305:Generated_Source\PSoC5/cyfitter_cfg.c **** 		};
 306:Generated_Source\PSoC5/cyfitter_cfg.c **** 
 307:Generated_Source\PSoC5/cyfitter_cfg.c **** 		uint8 CYDATA i;
 308:Generated_Source\PSoC5/cyfitter_cfg.c **** 
 309:Generated_Source\PSoC5/cyfitter_cfg.c **** 		/* Zero out critical memory blocks before beginning configuration */
 310:Generated_Source\PSoC5/cyfitter_cfg.c **** 		for (i = 0u; i < (sizeof(cfg_memset_list)/sizeof(cfg_memset_list[0])); i++)
 438              		.loc 1 310 0
 439 0018 0023     		movs	r3, #0
 440 001a FB71     		strb	r3, [r7, #7]
 441 001c 13E0     		b	.L22
 442              	.L23:
 443              	.LBB3:
 311:Generated_Source\PSoC5/cyfitter_cfg.c **** 		{
 312:Generated_Source\PSoC5/cyfitter_cfg.c **** 			const cfg_memset_t CYCODE * CYDATA ms = &cfg_memset_list[i];
 444              		.loc 1 312 0 discriminator 3
 445 001e FA79     		ldrb	r2, [r7, #7]	@ zero_extendqisi2
 446 0020 1346     		mov	r3, r2
 447 0022 5B00     		lsls	r3, r3, #1
 448 0024 1344     		add	r3, r3, r2
 449 0026 5B00     		lsls	r3, r3, #1
 450 0028 2B4A     		ldr	r2, .L24+4
 451 002a 1344     		add	r3, r3, r2
 452 002c 3B60     		str	r3, [r7]
 313:Generated_Source\PSoC5/cyfitter_cfg.c **** 			CYMEMZERO(ms->address, (size_t)(uint32)(ms->size));
 453              		.loc 1 313 0 discriminator 3
 454 002e 3B68     		ldr	r3, [r7]
 455 0030 1A68     		ldr	r2, [r3]	@ unaligned
 456 0032 3B68     		ldr	r3, [r7]
 457 0034 9B88     		ldrh	r3, [r3, #4]	@ unaligned
 458 0036 9BB2     		uxth	r3, r3
 459 0038 1046     		mov	r0, r2
 460 003a 1946     		mov	r1, r3
 461 003c FFF7FEFF 		bl	CYMEMZERO
 462              	.LBE3:
 310:Generated_Source\PSoC5/cyfitter_cfg.c **** 		{
 463              		.loc 1 310 0 discriminator 3
 464 0040 FB79     		ldrb	r3, [r7, #7]	@ zero_extendqisi2
 465 0042 0133     		adds	r3, r3, #1
 466 0044 FB71     		strb	r3, [r7, #7]
 467              	.L22:
 310:Generated_Source\PSoC5/cyfitter_cfg.c **** 		{
 468              		.loc 1 310 0 is_stmt 0 discriminator 1
 469 0046 FB79     		ldrb	r3, [r7, #7]	@ zero_extendqisi2
 470 0048 082B     		cmp	r3, #8
 471 004a E8D9     		bls	.L23
 314:Generated_Source\PSoC5/cyfitter_cfg.c **** 		}
 315:Generated_Source\PSoC5/cyfitter_cfg.c **** 
 316:Generated_Source\PSoC5/cyfitter_cfg.c **** 		/* Enable digital routing */
 317:Generated_Source\PSoC5/cyfitter_cfg.c **** 		CY_SET_XTND_REG8((void CYFAR *)CYREG_BCTL0_BANK_CTL, CY_GET_XTND_REG8((void CYFAR *)CYREG_BCTL0_B
 472              		.loc 1 317 0 is_stmt 1
 473 004c 234A     		ldr	r2, .L24+8
 474 004e 234B     		ldr	r3, .L24+8
 475 0050 1B78     		ldrb	r3, [r3]
 476 0052 DBB2     		uxtb	r3, r3
ARM GAS  C:\Users\User\AppData\Local\Temp\ccGddIjf.s 			page 15


 477 0054 43F00203 		orr	r3, r3, #2
 478 0058 DBB2     		uxtb	r3, r3
 479 005a 1370     		strb	r3, [r2]
 318:Generated_Source\PSoC5/cyfitter_cfg.c **** 		CY_SET_XTND_REG8((void CYFAR *)CYREG_BCTL1_BANK_CTL, CY_GET_XTND_REG8((void CYFAR *)CYREG_BCTL1_B
 480              		.loc 1 318 0
 481 005c 204A     		ldr	r2, .L24+12
 482 005e 204B     		ldr	r3, .L24+12
 483 0060 1B78     		ldrb	r3, [r3]
 484 0062 DBB2     		uxtb	r3, r3
 485 0064 43F00203 		orr	r3, r3, #2
 486 0068 DBB2     		uxtb	r3, r3
 487 006a 1370     		strb	r3, [r2]
 319:Generated_Source\PSoC5/cyfitter_cfg.c **** 
 320:Generated_Source\PSoC5/cyfitter_cfg.c **** 		/* Enable UDB array */
 321:Generated_Source\PSoC5/cyfitter_cfg.c **** 		CY_SET_XTND_REG8((void CYFAR *)CYREG_PM_ACT_CFG0, CY_GET_XTND_REG8((void CYFAR *)CYREG_PM_ACT_CFG
 488              		.loc 1 321 0
 489 006c 1D4A     		ldr	r2, .L24+16
 490 006e 1D4B     		ldr	r3, .L24+16
 491 0070 1B78     		ldrb	r3, [r3]
 492 0072 DBB2     		uxtb	r3, r3
 493 0074 43F04003 		orr	r3, r3, #64
 494 0078 DBB2     		uxtb	r3, r3
 495 007a 1370     		strb	r3, [r2]
 322:Generated_Source\PSoC5/cyfitter_cfg.c **** 		CY_SET_XTND_REG8((void CYFAR *)CYREG_PM_AVAIL_CR2, CY_GET_XTND_REG8((void CYFAR *)CYREG_PM_AVAIL_
 496              		.loc 1 322 0
 497 007c 1A4A     		ldr	r2, .L24+20
 498 007e 1A4B     		ldr	r3, .L24+20
 499 0080 1B78     		ldrb	r3, [r3]
 500 0082 DBB2     		uxtb	r3, r3
 501 0084 43F01003 		orr	r3, r3, #16
 502 0088 DBB2     		uxtb	r3, r3
 503 008a 1370     		strb	r3, [r2]
 504              	.LBE2:
 323:Generated_Source\PSoC5/cyfitter_cfg.c **** 	}
 324:Generated_Source\PSoC5/cyfitter_cfg.c **** 
 325:Generated_Source\PSoC5/cyfitter_cfg.c **** 
 326:Generated_Source\PSoC5/cyfitter_cfg.c **** 	/* Perform second pass device configuration. These items must be configured in specific order afte
 327:Generated_Source\PSoC5/cyfitter_cfg.c **** 	CYCONFIGCPY((void CYFAR *)(CYREG_PRT1_DM0), (const void CYFAR *)(BS_IOPINS0_1_VAL), 8u);
 505              		.loc 1 327 0
 506 008c 1748     		ldr	r0, .L24+24
 507 008e 4FF09041 		mov	r1, #1207959552
 508 0092 0822     		movs	r2, #8
 509 0094 FFF7FEFF 		bl	CYCONFIGCPY
 328:Generated_Source\PSoC5/cyfitter_cfg.c **** 	/* Switch Boost to the precision bandgap reference from its internal reference */
 329:Generated_Source\PSoC5/cyfitter_cfg.c **** 	CY_SET_REG8((void CYXDATA *)CYREG_BOOST_CR2, (CY_GET_REG8((void CYXDATA *)CYREG_BOOST_CR2) | 0x08u
 510              		.loc 1 329 0
 511 0098 154A     		ldr	r2, .L24+28
 512 009a 154B     		ldr	r3, .L24+28
 513 009c 1B78     		ldrb	r3, [r3]
 514 009e DBB2     		uxtb	r3, r3
 515 00a0 43F00803 		orr	r3, r3, #8
 516 00a4 DBB2     		uxtb	r3, r3
 517 00a6 1370     		strb	r3, [r2]
 330:Generated_Source\PSoC5/cyfitter_cfg.c **** 
 331:Generated_Source\PSoC5/cyfitter_cfg.c **** 	/* Set Flash Cycles based on max possible frequency in case a glitch occurs during ClockSetup(). *
 332:Generated_Source\PSoC5/cyfitter_cfg.c **** 	CY_SET_XTND_REG8((void CYFAR *)(CYREG_CACHE_CC_CTL), (((CYDEV_INSTRUCT_CACHE_ENABLED) != 0) ? 0x61
 518              		.loc 1 332 0
ARM GAS  C:\Users\User\AppData\Local\Temp\ccGddIjf.s 			page 16


 519 00a8 124B     		ldr	r3, .L24+32
 520 00aa 6122     		movs	r2, #97
 521 00ac 1A70     		strb	r2, [r3]
 333:Generated_Source\PSoC5/cyfitter_cfg.c **** 	/* Setup clocks based on selections from Clock DWR */
 334:Generated_Source\PSoC5/cyfitter_cfg.c **** 	ClockSetup();
 522              		.loc 1 334 0
 523 00ae FFF7FEFF 		bl	ClockSetup
 335:Generated_Source\PSoC5/cyfitter_cfg.c **** 	/* Set Flash Cycles based on newly configured 24.00MHz Bus Clock. */
 336:Generated_Source\PSoC5/cyfitter_cfg.c **** 	CY_SET_XTND_REG8((void CYFAR *)(CYREG_CACHE_CC_CTL), (((CYDEV_INSTRUCT_CACHE_ENABLED) != 0) ? 0x81
 524              		.loc 1 336 0
 525 00b2 104B     		ldr	r3, .L24+32
 526 00b4 8122     		movs	r2, #129
 527 00b6 1A70     		strb	r2, [r3]
 337:Generated_Source\PSoC5/cyfitter_cfg.c **** 	CY_SET_XTND_REG8((void CYFAR *)(CYREG_PANTHER_WAITPIPE), 0x01u);
 528              		.loc 1 337 0
 529 00b8 0F4B     		ldr	r3, .L24+36
 530 00ba 0122     		movs	r2, #1
 531 00bc 1A70     		strb	r2, [r3]
 338:Generated_Source\PSoC5/cyfitter_cfg.c **** 
 339:Generated_Source\PSoC5/cyfitter_cfg.c **** 	/* Perform basic analog initialization to defaults */
 340:Generated_Source\PSoC5/cyfitter_cfg.c **** 	AnalogSetDefault();
 532              		.loc 1 340 0
 533 00be FFF7FEFF 		bl	AnalogSetDefault
 341:Generated_Source\PSoC5/cyfitter_cfg.c **** 
 342:Generated_Source\PSoC5/cyfitter_cfg.c **** 	/* Configure alternate active mode */
 343:Generated_Source\PSoC5/cyfitter_cfg.c **** 	CYCONFIGCPY((void CYFAR *)CYDEV_PM_STBY_BASE, (const void CYFAR *)CYDEV_PM_ACT_BASE, 14u);
 534              		.loc 1 343 0
 535 00c2 0E48     		ldr	r0, .L24+40
 536 00c4 0749     		ldr	r1, .L24+16
 537 00c6 0E22     		movs	r2, #14
 538 00c8 FFF7FEFF 		bl	CYCONFIGCPY
 344:Generated_Source\PSoC5/cyfitter_cfg.c **** }
 539              		.loc 1 344 0
 540 00cc 0837     		adds	r7, r7, #8
 541              		.cfi_def_cfa_offset 8
 542 00ce BD46     		mov	sp, r7
 543              		.cfi_def_cfa_register 13
 544              		@ sp needed
 545 00d0 80BD     		pop	{r7, pc}
 546              	.L25:
 547 00d2 00BF     		.align	2
 548              	.L24:
 549 00d4 E8460040 		.word	1073759976
 550 00d8 00000000 		.word	cfg_memset_list.4859
 551 00dc 03500140 		.word	1073827843
 552 00e0 13500140 		.word	1073827859
 553 00e4 A0430040 		.word	1073759136
 554 00e8 C2430040 		.word	1073759170
 555 00ec 12510040 		.word	1073762578
 556 00f0 22430040 		.word	1073759010
 557 00f4 00480040 		.word	1073760256
 558 00f8 04000840 		.word	1074266116
 559 00fc B0430040 		.word	1073759152
 560              		.cfi_endproc
 561              	.LFE7:
 562              		.size	cyfitter_cfg, .-cyfitter_cfg
 563              		.section	.rodata
ARM GAS  C:\Users\User\AppData\Local\Temp\ccGddIjf.s 			page 17


 564              		.align	2
 565              		.type	cfg_memset_list.4859, %object
 566              		.size	cfg_memset_list.4859, 54
 567              	cfg_memset_list.4859:
 568 0000 00510040 		.word	1073762560
 569 0004 1000     		.short	16
 570 0006 20510040 		.4byte	1073762592
 571 000a 5000     		.short	80
 572 000c C0510040 		.word	1073762752
 573 0010 1000     		.short	16
 574 0012 F0510040 		.4byte	1073762800
 575 0016 1000     		.short	16
 576 0018 00000140 		.word	1073807360
 577 001c 0010     		.short	4096
 578 001e 00140140 		.4byte	1073812480
 579 0022 0008     		.short	2048
 580 0024 00400140 		.word	1073823744
 581 0028 000A     		.short	2560
 582 002a 004C0140 		.4byte	1073826816
 583 002e 0002     		.short	512
 584 0030 00500140 		.word	1073827840
 585 0034 2000     		.short	32
 586 0036 0000     		.text
 587              	.Letext0:
 588              		.file 2 "c:\\program files (x86)\\cypress\\psoc creator\\4.0\\psoc creator\\import\\gnu\\arm\\4.9.
 589              		.file 3 "Generated_Source\\PSoC5\\cytypes.h"